
build/kernel.elf:     file format elf32-littlearm


Disassembly of section .init:

00008000 <_start>:
    8000:	ea000008 	b	8028 <boot_reset>
    8004:	ea000005 	b	8020 <boot_sleep>
    8008:	ea000004 	b	8020 <boot_sleep>
    800c:	ea000003 	b	8020 <boot_sleep>
    8010:	ea000002 	b	8020 <boot_sleep>
    8014:	ea000001 	b	8020 <boot_sleep>
    8018:	ea000000 	b	8020 <boot_sleep>
    801c:	eaffffff 	b	8020 <boot_sleep>

00008020 <boot_sleep>:
    8020:	e320f002 	wfe
    8024:	eafffffd 	b	8020 <boot_sleep>

00008028 <boot_reset>:
    8028:	e321f0d3 	msr	CPSR_c, #211	; 0xd3
    802c:	ee110f10 	mrc	15, 0, r0, cr1, cr0, {0}
    8030:	e3c00a01 	bic	r0, r0, #4096	; 0x1000
    8034:	e3c00b02 	bic	r0, r0, #2048	; 0x800
    8038:	e3c00004 	bic	r0, r0, #4
    803c:	e3c00001 	bic	r0, r0, #1
    8040:	ee010f10 	mcr	15, 0, r0, cr1, cr0, {0}
    8044:	ee110f30 	mrc	15, 0, r0, cr1, cr0, {1}
    8048:	e3800040 	orr	r0, r0, #64	; 0x40
    804c:	ee010f30 	mcr	15, 0, r0, cr1, cr0, {1}
    8050:	e3a00000 	mov	r0, #0
    8054:	ee080f17 	mcr	15, 0, r0, cr8, cr7, {0}
    8058:	ee070fd5 	mcr	15, 0, r0, cr7, cr5, {6}
    805c:	e59f0144 	ldr	r0, [pc, #324]	; 81a8 <mp_continue+0x20>
    8060:	ee0c0f10 	mcr	15, 0, r0, cr12, cr0, {0}
    8064:	ee300f30 	mrc	15, 1, r0, cr0, cr0, {1}
    8068:	e3100003 	tst	r0, #3
    806c:	e3a00000 	mov	r0, #0
    8070:	1e070f15 	mcrne	15, 0, r0, cr7, cr5, {0}
    8074:	ee300f30 	mrc	15, 1, r0, cr0, cr0, {1}
    8078:	e2103407 	ands	r3, r0, #117440512	; 0x7000000
    807c:	e1a03ba3 	lsr	r3, r3, #23
    8080:	0a00001a 	beq	80f0 <finished>
    8084:	e3a0a000 	mov	sl, #0

00008088 <loop1>:
    8088:	e08a20aa 	add	r2, sl, sl, lsr #1
    808c:	e1a01230 	lsr	r1, r0, r2
    8090:	e2011007 	and	r1, r1, #7
    8094:	e3510002 	cmp	r1, #2
    8098:	ba000011 	blt	80e4 <skip>
    809c:	ee40af10 	mcr	15, 2, sl, cr0, cr0, {0}
    80a0:	f57ff06f 	isb	sy
    80a4:	ee301f10 	mrc	15, 1, r1, cr0, cr0, {0}
    80a8:	e2012007 	and	r2, r1, #7
    80ac:	e2822004 	add	r2, r2, #4
    80b0:	e59f40f4 	ldr	r4, [pc, #244]	; 81ac <mp_continue+0x24>
    80b4:	e01441a1 	ands	r4, r4, r1, lsr #3
    80b8:	e16f5f14 	clz	r5, r4
    80bc:	e59f70ec 	ldr	r7, [pc, #236]	; 81b0 <mp_continue+0x28>
    80c0:	e01776a1 	ands	r7, r7, r1, lsr #13

000080c4 <loop2>:
    80c4:	e1a09004 	mov	r9, r4

000080c8 <loop3>:
    80c8:	e18ab519 	orr	fp, sl, r9, lsl r5
    80cc:	e18bb217 	orr	fp, fp, r7, lsl r2
    80d0:	ee07bf56 	mcr	15, 0, fp, cr7, cr6, {2}
    80d4:	e2599001 	subs	r9, r9, #1
    80d8:	aafffffa 	bge	80c8 <loop3>
    80dc:	e2577001 	subs	r7, r7, #1
    80e0:	aafffff7 	bge	80c4 <loop2>

000080e4 <skip>:
    80e4:	e28aa002 	add	sl, sl, #2
    80e8:	e153000a 	cmp	r3, sl
    80ec:	caffffe5 	bgt	8088 <loop1>

000080f0 <finished>:
    80f0:	e3a00000 	mov	r0, #0
    80f4:	ee020f50 	mcr	15, 0, r0, cr2, cr0, {2}
    80f8:	e3a00901 	mov	r0, #16384	; 0x4000
    80fc:	e3a01008 	mov	r1, #8
    8100:	e3811040 	orr	r1, r1, #64	; 0x40
    8104:	e1800001 	orr	r0, r0, r1
    8108:	ee020f10 	mcr	15, 0, r0, cr2, cr0, {0}
    810c:	ee130f10 	mrc	15, 0, r0, cr3, cr0, {0}
    8110:	e59f009c 	ldr	r0, [pc, #156]	; 81b4 <mp_continue+0x2c>
    8114:	ee030f10 	mcr	15, 0, r0, cr3, cr0, {0}
    8118:	ee100fb0 	mrc	15, 0, r0, cr0, cr0, {5}
    811c:	e2100003 	ands	r0, r0, #3
    8120:	1320f002 	wfene
    8124:	1a000017 	bne	8188 <mp_continue>

00008128 <mmu_phase1>:
    8128:	e3a00901 	mov	r0, #16384	; 0x4000
    812c:	e59f1084 	ldr	r1, [pc, #132]	; 81b8 <mp_continue+0x30>
    8130:	e3a02000 	mov	r2, #0

00008134 <pagetable_invalidate>:
    8134:	e7802101 	str	r2, [r0, r1, lsl #2]
    8138:	e2511001 	subs	r1, r1, #1
    813c:	5afffffc 	bpl	8134 <pagetable_invalidate>
    8140:	e59f2074 	ldr	r2, [pc, #116]	; 81bc <mp_continue+0x34>
    8144:	e3a01000 	mov	r1, #0
    8148:	e1a01a21 	lsr	r1, r1, #20
    814c:	e1823a01 	orr	r3, r2, r1, lsl #20
    8150:	e7803101 	str	r3, [r0, r1, lsl #2]
    8154:	e3a01000 	mov	r1, #0
    8158:	e1a01a21 	lsr	r1, r1, #20
    815c:	e1823a01 	orr	r3, r2, r1, lsl #20
    8160:	e3a01102 	mov	r1, #-2147483648	; 0x80000000
    8164:	e1a01a21 	lsr	r1, r1, #20
    8168:	e7803101 	str	r3, [r0, r1, lsl #2]
    816c:	e59f204c 	ldr	r2, [pc, #76]	; 81c0 <mp_continue+0x38>
    8170:	e59f104c 	ldr	r1, [pc, #76]	; 81c4 <mp_continue+0x3c>
    8174:	e1a01a21 	lsr	r1, r1, #20
    8178:	e1823a01 	orr	r3, r2, r1, lsl #20
    817c:	e59f1044 	ldr	r1, [pc, #68]	; 81c8 <mp_continue+0x40>
    8180:	e1a01a21 	lsr	r1, r1, #20
    8184:	e7803101 	str	r3, [r0, r1, lsl #2]

00008188 <mp_continue>:
    8188:	e59fd03c 	ldr	sp, [pc, #60]	; 81cc <mp_continue+0x44>
    818c:	f57ff04f 	dsb	sy
    8190:	e59f1038 	ldr	r1, [pc, #56]	; 81d0 <mp_continue+0x48>
    8194:	ee110f10 	mrc	15, 0, r0, cr1, cr0, {0}
    8198:	e3800a02 	orr	r0, r0, #8192	; 0x2000
    819c:	e3800001 	orr	r0, r0, #1
    81a0:	ee010f10 	mcr	15, 0, r0, cr1, cr0, {0}
    81a4:	e12fff11 	bx	r1
    81a8:	00008000 	.word	0x00008000
    81ac:	000003ff 	.word	0x000003ff
    81b0:	00007fff 	.word	0x00007fff
    81b4:	55555555 	.word	0x55555555
    81b8:	00000fff 	.word	0x00000fff
    81bc:	00014406 	.word	0x00014406
    81c0:	00000c16 	.word	0x00000c16
    81c4:	3f200000 	.word	0x3f200000
    81c8:	d0200000 	.word	0xd0200000
    81cc:	80003000 	.word	0x80003000
    81d0:	80008200 	.word	0x80008200

Disassembly of section .text:

80008200 <_pagingstart>:
80008200:	eb000ad3 	bl	8000ad54 <cmain>
80008204:	eb000a9f 	bl	8000ac88 <NotOkLoop>

80008208 <acknowledge>:
80008208:	e3a0220d 	mov	r2, #-805306368	; 0xd0000000
8000820c:	e2822602 	add	r2, r2, #2097152	; 0x200000
80008210:	e3a03001 	mov	r3, #1
80008214:	e1a03a83 	lsl	r3, r3, #21
80008218:	e5823010 	str	r3, [r2, #16]
8000821c:	e3a03001 	mov	r3, #1
80008220:	e1a03783 	lsl	r3, r3, #15
80008224:	e5823020 	str	r3, [r2, #32]
80008228:	e12fff1e 	bx	lr

8000822c <dsb_barrier>:
8000822c:	f57ff04f 	dsb	sy
80008230:	f57ff06f 	isb	sy
80008234:	e12fff1e 	bx	lr

80008238 <flush_dcache_all>:
80008238:	f57ff04f 	dsb	sy
8000823c:	f57ff06f 	isb	sy
80008240:	e12fff1e 	bx	lr

80008244 <flush_idcache>:
80008244:	f57ff04f 	dsb	sy
80008248:	f57ff06f 	isb	sy
8000824c:	e12fff1e 	bx	lr

80008250 <flush_tlb>:
80008250:	f57ff04f 	dsb	sy
80008254:	f57ff06f 	isb	sy
80008258:	e3a00000 	mov	r0, #0
8000825c:	ee080f17 	mcr	15, 0, r0, cr8, cr7, {0}
80008260:	ee070fd5 	mcr	15, 0, r0, cr7, cr5, {6}
80008264:	f57ff04f 	dsb	sy
80008268:	f57ff06f 	isb	sy
8000826c:	e12fff1e 	bx	lr

80008270 <flush_dcache>:
80008270:	f57ff04f 	dsb	sy
80008274:	f57ff06f 	isb	sy
80008278:	e12fff1e 	bx	lr

8000827c <set_pgtbase>:
8000827c:	ee020f10 	mcr	15, 0, r0, cr2, cr0, {0}
80008280:	e12fff1e 	bx	lr

80008284 <getsystemtime>:
80008284:	e59f0004 	ldr	r0, [pc, #4]	; 80008290 <getsystemtime+0xc>
80008288:	e1c000d0 	ldrd	r0, [r0]
8000828c:	e12fff1e 	bx	lr
80008290:	d0003004 	.word	0xd0003004
	...

800082a0 <vectors>:
800082a0:	e59ff018 	ldr	pc, [pc, #24]	; 800082c0 <reset_handler>
800082a4:	e59ff018 	ldr	pc, [pc, #24]	; 800082c4 <undefintr_handler>
800082a8:	e59ff018 	ldr	pc, [pc, #24]	; 800082c8 <swi_handler>
800082ac:	e59ff018 	ldr	pc, [pc, #24]	; 800082cc <prefetch_handler>
800082b0:	e59ff018 	ldr	pc, [pc, #24]	; 800082d0 <data_handler>
800082b4:	e59ff018 	ldr	pc, [pc, #24]	; 800082d4 <unused_handler>
800082b8:	e59ff018 	ldr	pc, [pc, #24]	; 800082d8 <irq_handler>
800082bc:	e59ff018 	ldr	pc, [pc, #24]	; 800082dc <fiq_handler>

800082c0 <reset_handler>:
800082c0:	800082e0 	.word	0x800082e0

800082c4 <undefintr_handler>:
800082c4:	8000836c 	.word	0x8000836c

800082c8 <swi_handler>:
800082c8:	800082e8 	.word	0x800082e8

800082cc <prefetch_handler>:
800082cc:	80008378 	.word	0x80008378

800082d0 <data_handler>:
800082d0:	80008384 	.word	0x80008384

800082d4 <unused_handler>:
800082d4:	800082e0 	.word	0x800082e0

800082d8 <irq_handler>:
800082d8:	80008390 	.word	0x80008390

800082dc <fiq_handler>:
800082dc:	800082e0 	.word	0x800082e0

800082e0 <hang>:
800082e0:	eb000a68 	bl	8000ac88 <NotOkLoop>
800082e4:	eafffffd 	b	800082e0 <hang>

800082e8 <do_svc>:
800082e8:	e52de004 	push	{lr}		; (str lr, [sp, #-4]!)
800082ec:	e14fe000 	mrs	lr, SPSR
800082f0:	e52de004 	push	{lr}		; (str lr, [sp, #-4]!)
800082f4:	e10fe000 	mrs	lr, CPSR
800082f8:	e52de004 	push	{lr}		; (str lr, [sp, #-4]!)
800082fc:	ee16ef50 	mrc	15, 0, lr, cr6, cr0, {2}
80008300:	e52de004 	push	{lr}		; (str lr, [sp, #-4]!)
80008304:	e3a0e040 	mov	lr, #64	; 0x40
80008308:	e52de004 	push	{lr}		; (str lr, [sp, #-4]!)
8000830c:	e90d7fff 	stmdb	sp, {r0, r1, r2, r3, r4, r5, r6, r7, r8, r9, sl, fp, ip, sp, lr}
80008310:	e24dd03c 	sub	sp, sp, #60	; 0x3c
80008314:	e1a0000d 	mov	r0, sp
80008318:	e9402000 	stmdb	r0, {sp}^
8000831c:	e1a01001 	mov	r1, r1
80008320:	e1a01001 	mov	r1, r1
80008324:	e1a01001 	mov	r1, r1
80008328:	e1a0d000 	mov	sp, r0
8000832c:	e24dd004 	sub	sp, sp, #4
80008330:	e1a0000d 	mov	r0, sp
80008334:	eb001504 	bl	8000d74c <trap>

80008338 <trapret>:
80008338:	e1a0000d 	mov	r0, sp
8000833c:	e8d02000 	ldm	r0, {sp}^
80008340:	e1a01001 	mov	r1, r1
80008344:	e1a01001 	mov	r1, r1
80008348:	e1a01001 	mov	r1, r1
8000834c:	e1a0d000 	mov	sp, r0
80008350:	e28dd004 	add	sp, sp, #4
80008354:	e89d1fff 	ldm	sp, {r0, r1, r2, r3, r4, r5, r6, r7, r8, r9, sl, fp, ip}
80008358:	e28dd048 	add	sp, sp, #72	; 0x48
8000835c:	e49de004 	pop	{lr}		; (ldr lr, [sp], #4)
80008360:	e169f00e 	msr	SPSR_fc, lr
80008364:	e49de004 	pop	{lr}		; (ldr lr, [sp], #4)
80008368:	e1b0f00e 	movs	pc, lr

8000836c <do_und>:
8000836c:	e90d001f 	stmdb	sp, {r0, r1, r2, r3, r4}
80008370:	e3a00001 	mov	r0, #1
80008374:	ea000008 	b	8000839c <_switchtosvc>

80008378 <do_pabt>:
80008378:	e90d001f 	stmdb	sp, {r0, r1, r2, r3, r4}
8000837c:	e3a00002 	mov	r0, #2
80008380:	ea000005 	b	8000839c <_switchtosvc>

80008384 <do_dabt>:
80008384:	e90d001f 	stmdb	sp, {r0, r1, r2, r3, r4}
80008388:	e3a00004 	mov	r0, #4
8000838c:	ea000002 	b	8000839c <_switchtosvc>

80008390 <do_irq>:
80008390:	e90d001f 	stmdb	sp, {r0, r1, r2, r3, r4}
80008394:	e3a00080 	mov	r0, #128	; 0x80
80008398:	eaffffff 	b	8000839c <_switchtosvc>

8000839c <_switchtosvc>:
8000839c:	e14f1000 	mrs	r1, SPSR
800083a0:	e24e2004 	sub	r2, lr, #4
800083a4:	e1a0300d 	mov	r3, sp
800083a8:	e10fe000 	mrs	lr, CPSR
800083ac:	e3cee01f 	bic	lr, lr, #31
800083b0:	e38ee080 	orr	lr, lr, #128	; 0x80
800083b4:	e38ee013 	orr	lr, lr, #19
800083b8:	e129f00e 	msr	CPSR_fc, lr
800083bc:	e52d2004 	push	{r2}		; (str r2, [sp, #-4]!)
800083c0:	e52d1004 	push	{r1}		; (str r1, [sp, #-4]!)
800083c4:	e10f1000 	mrs	r1, CPSR
800083c8:	e52d1004 	push	{r1}		; (str r1, [sp, #-4]!)
800083cc:	ee161f50 	mrc	15, 0, r1, cr6, cr0, {2}
800083d0:	e52d1004 	push	{r1}		; (str r1, [sp, #-4]!)
800083d4:	e52d0004 	push	{r0}		; (str r0, [sp, #-4]!)
800083d8:	e2431014 	sub	r1, r3, #20
800083dc:	e891001f 	ldm	r1, {r0, r1, r2, r3, r4}
800083e0:	e90d7fff 	stmdb	sp, {r0, r1, r2, r3, r4, r5, r6, r7, r8, r9, sl, fp, ip, sp, lr}
800083e4:	e24dd03c 	sub	sp, sp, #60	; 0x3c
800083e8:	e1a0000d 	mov	r0, sp
800083ec:	e9402000 	stmdb	r0, {sp}^
800083f0:	e1a01001 	mov	r1, r1
800083f4:	e1a01001 	mov	r1, r1
800083f8:	e1a01001 	mov	r1, r1
800083fc:	e1a0d000 	mov	sp, r0
80008400:	e24dd004 	sub	sp, sp, #4
80008404:	e1a0000d 	mov	r0, sp
80008408:	eb0014cf 	bl	8000d74c <trap>
8000840c:	e1a0000d 	mov	r0, sp
80008410:	e280004c 	add	r0, r0, #76	; 0x4c
80008414:	e8900002 	ldm	r0, {r1}
80008418:	e1a02001 	mov	r2, r1
8000841c:	e202200f 	and	r2, r2, #15
80008420:	e3520000 	cmp	r2, #0
80008424:	0a000006 	beq	80008444 <_backtouser>
80008428:	e129f001 	msr	CPSR_fc, r1
8000842c:	e28dd004 	add	sp, sp, #4
80008430:	e89d1fff 	ldm	sp, {r0, r1, r2, r3, r4, r5, r6, r7, r8, r9, sl, fp, ip}
80008434:	e28dd038 	add	sp, sp, #56	; 0x38
80008438:	e49de004 	pop	{lr}		; (ldr lr, [sp], #4)
8000843c:	e28dd010 	add	sp, sp, #16
80008440:	e49df004 	pop	{pc}		; (ldr pc, [sp], #4)

80008444 <_backtouser>:
80008444:	e1a0000d 	mov	r0, sp
80008448:	e8d02000 	ldm	r0, {sp}^
8000844c:	e1a01001 	mov	r1, r1
80008450:	e1a01001 	mov	r1, r1
80008454:	e1a01001 	mov	r1, r1
80008458:	e1a0d000 	mov	sp, r0
8000845c:	e28dd004 	add	sp, sp, #4
80008460:	e89d1fff 	ldm	sp, {r0, r1, r2, r3, r4, r5, r6, r7, r8, r9, sl, fp, ip}
80008464:	e28dd048 	add	sp, sp, #72	; 0x48
80008468:	e49de004 	pop	{lr}		; (ldr lr, [sp], #4)
8000846c:	e169f00e 	msr	SPSR_fc, lr
80008470:	e49de004 	pop	{lr}		; (ldr lr, [sp], #4)
80008474:	e1b0f00e 	movs	pc, lr

80008478 <set_mode_sp>:
80008478:	e10f2000 	mrs	r2, CPSR
8000847c:	e121f001 	msr	CPSR_c, r1
80008480:	e1a0d000 	mov	sp, r0
80008484:	e10f0000 	mrs	r0, CPSR
80008488:	e3800080 	orr	r0, r0, #128	; 0x80
8000848c:	e3800040 	orr	r0, r0, #64	; 0x40
80008490:	e129f000 	msr	CPSR_fc, r0
80008494:	e121f002 	msr	CPSR_c, r2
80008498:	e12fff1e 	bx	lr

8000849c <readcpsr>:
8000849c:	e10f0000 	mrs	r0, CPSR
800084a0:	e12fff1e 	bx	lr

800084a4 <cli>:
800084a4:	e10f0000 	mrs	r0, CPSR
800084a8:	e3800080 	orr	r0, r0, #128	; 0x80
800084ac:	e129f000 	msr	CPSR_fc, r0
800084b0:	e12fff1e 	bx	lr

800084b4 <sti>:
800084b4:	e10f0000 	mrs	r0, CPSR
800084b8:	e3c00080 	bic	r0, r0, #128	; 0x80
800084bc:	e129f000 	msr	CPSR_fc, r0
800084c0:	e12fff1e 	bx	lr

800084c4 <swtch>:
800084c4:	e52de004 	push	{lr}		; (str lr, [sp, #-4]!)
800084c8:	e52de004 	push	{lr}		; (str lr, [sp, #-4]!)
800084cc:	e52dc004 	push	{ip}		; (str ip, [sp, #-4]!)
800084d0:	e52db004 	push	{fp}		; (str fp, [sp, #-4]!)
800084d4:	e52da004 	push	{sl}		; (str sl, [sp, #-4]!)
800084d8:	e52d9004 	push	{r9}		; (str r9, [sp, #-4]!)
800084dc:	e52d8004 	push	{r8}		; (str r8, [sp, #-4]!)
800084e0:	e52d7004 	push	{r7}		; (str r7, [sp, #-4]!)
800084e4:	e52d6004 	push	{r6}		; (str r6, [sp, #-4]!)
800084e8:	e52d5004 	push	{r5}		; (str r5, [sp, #-4]!)
800084ec:	e52d4004 	push	{r4}		; (str r4, [sp, #-4]!)
800084f0:	e580d000 	str	sp, [r0]
800084f4:	e1a0d001 	mov	sp, r1
800084f8:	e49d4004 	pop	{r4}		; (ldr r4, [sp], #4)
800084fc:	e49d5004 	pop	{r5}		; (ldr r5, [sp], #4)
80008500:	e49d6004 	pop	{r6}		; (ldr r6, [sp], #4)
80008504:	e49d7004 	pop	{r7}		; (ldr r7, [sp], #4)
80008508:	e49d8004 	pop	{r8}		; (ldr r8, [sp], #4)
8000850c:	e49d9004 	pop	{r9}		; (ldr r9, [sp], #4)
80008510:	e49da004 	pop	{sl}		; (ldr sl, [sp], #4)
80008514:	e49db004 	pop	{fp}		; (ldr fp, [sp], #4)
80008518:	e49dc004 	pop	{ip}		; (ldr ip, [sp], #4)
8000851c:	e49de004 	pop	{lr}		; (ldr lr, [sp], #4)
80008520:	e49df004 	pop	{pc}		; (ldr pc, [sp], #4)

80008524 <binit>:
80008524:	e30f0928 	movw	r0, #63784	; 0xf928
80008528:	e301273c 	movw	r2, #5948	; 0x173c
8000852c:	e92d4010 	push	{r4, lr}
80008530:	e3a01000 	mov	r1, #0
80008534:	e3480008 	movt	r0, #32776	; 0x8008
80008538:	e3e04000 	mvn	r4, #0
8000853c:	eb000e2f 	bl	8000be00 <memset>
80008540:	e30e1400 	movw	r1, #58368	; 0xe400
80008544:	e30f0928 	movw	r0, #63784	; 0xf928
80008548:	e3481000 	movt	r1, #32768	; 0x8000
8000854c:	e3480008 	movt	r0, #32776	; 0x8008
80008550:	eb000db4 	bl	8000bc28 <initlock>
80008554:	e59f2044 	ldr	r2, [pc, #68]	; 800085a0 <binit+0x7c>
80008558:	e59f1044 	ldr	r1, [pc, #68]	; 800085a4 <binit+0x80>
8000855c:	e59f3044 	ldr	r3, [pc, #68]	; 800085a8 <binit+0x84>
80008560:	e1a00002 	mov	r0, r2
80008564:	e5812530 	str	r2, [r1, #1328]	; 0x530
80008568:	e1a0c002 	mov	ip, r2
8000856c:	e5812534 	str	r2, [r1, #1332]	; 0x534
80008570:	e583c010 	str	ip, [r3, #16]
80008574:	e2832f86 	add	r2, r3, #536	; 0x218
80008578:	e583000c 	str	r0, [r3, #12]
8000857c:	e1a0c003 	mov	ip, r3
80008580:	e591e534 	ldr	lr, [r1, #1332]	; 0x534
80008584:	e1520000 	cmp	r2, r0
80008588:	e5834004 	str	r4, [r3, #4]
8000858c:	e58e300c 	str	r3, [lr, #12]
80008590:	e5813534 	str	r3, [r1, #1332]	; 0x534
80008594:	e1a03002 	mov	r3, r2
80008598:	3afffff4 	bcc	80008570 <binit+0x4c>
8000859c:	e8bd8010 	pop	{r4, pc}
800085a0:	80090e4c 	.word	0x80090e4c
800085a4:	80090928 	.word	0x80090928
800085a8:	8008f95c 	.word	0x8008f95c

800085ac <bread>:
800085ac:	e92d47f0 	push	{r4, r5, r6, r7, r8, r9, sl, lr}
800085b0:	e1a06000 	mov	r6, r0
800085b4:	e59f80e8 	ldr	r8, [pc, #232]	; 800086a4 <bread+0xf8>
800085b8:	e30f0928 	movw	r0, #63784	; 0xf928
800085bc:	e3480008 	movt	r0, #32776	; 0x8008
800085c0:	e1a07001 	mov	r7, r1
800085c4:	e59f50dc 	ldr	r5, [pc, #220]	; 800086a8 <bread+0xfc>
800085c8:	e2489a01 	sub	r9, r8, #4096	; 0x1000
800085cc:	eb000db3 	bl	8000bca0 <acquire>
800085d0:	e5984534 	ldr	r4, [r8, #1332]	; 0x534
800085d4:	e1540005 	cmp	r4, r5
800085d8:	1a000003 	bne	800085ec <bread+0x40>
800085dc:	ea00000f 	b	80008620 <bread+0x74>
800085e0:	e5944010 	ldr	r4, [r4, #16]
800085e4:	e1540005 	cmp	r4, r5
800085e8:	0a00000c 	beq	80008620 <bread+0x74>
800085ec:	e5943004 	ldr	r3, [r4, #4]
800085f0:	e1560003 	cmp	r6, r3
800085f4:	1afffff9 	bne	800085e0 <bread+0x34>
800085f8:	e5943008 	ldr	r3, [r4, #8]
800085fc:	e1570003 	cmp	r7, r3
80008600:	1afffff6 	bne	800085e0 <bread+0x34>
80008604:	e5943000 	ldr	r3, [r4]
80008608:	e3130001 	tst	r3, #1
8000860c:	0a00001b 	beq	80008680 <bread+0xd4>
80008610:	e1a00004 	mov	r0, r4
80008614:	e1a01009 	mov	r1, r9
80008618:	eb000ce2 	bl	8000b9a8 <sleep>
8000861c:	eaffffeb 	b	800085d0 <bread+0x24>
80008620:	e5984530 	ldr	r4, [r8, #1328]	; 0x530
80008624:	e1540005 	cmp	r4, r5
80008628:	1a000003 	bne	8000863c <bread+0x90>
8000862c:	ea000019 	b	80008698 <bread+0xec>
80008630:	e594400c 	ldr	r4, [r4, #12]
80008634:	e1540005 	cmp	r4, r5
80008638:	0a000016 	beq	80008698 <bread+0xec>
8000863c:	e5943000 	ldr	r3, [r4]
80008640:	e3130005 	tst	r3, #5
80008644:	1afffff9 	bne	80008630 <bread+0x84>
80008648:	e5846004 	str	r6, [r4, #4]
8000864c:	e3a03001 	mov	r3, #1
80008650:	e5847008 	str	r7, [r4, #8]
80008654:	e30f0928 	movw	r0, #63784	; 0xf928
80008658:	e5843000 	str	r3, [r4]
8000865c:	e3480008 	movt	r0, #32776	; 0x8008
80008660:	eb000dc4 	bl	8000bd78 <release>
80008664:	e5943000 	ldr	r3, [r4]
80008668:	e3130002 	tst	r3, #2
8000866c:	1a000001 	bne	80008678 <bread+0xcc>
80008670:	e1a00004 	mov	r0, r4
80008674:	eb000a11 	bl	8000aec0 <iderw>
80008678:	e1a00004 	mov	r0, r4
8000867c:	e8bd87f0 	pop	{r4, r5, r6, r7, r8, r9, sl, pc}
80008680:	e3833001 	orr	r3, r3, #1
80008684:	e30f0928 	movw	r0, #63784	; 0xf928
80008688:	e5843000 	str	r3, [r4]
8000868c:	e3480008 	movt	r0, #32776	; 0x8008
80008690:	eb000db8 	bl	8000bd78 <release>
80008694:	eafffff2 	b	80008664 <bread+0xb8>
80008698:	e30e0408 	movw	r0, #58376	; 0xe408
8000869c:	e3480000 	movt	r0, #32768	; 0x8000
800086a0:	eb00019e 	bl	80008d20 <panic>
800086a4:	80090928 	.word	0x80090928
800086a8:	80090e4c 	.word	0x80090e4c

800086ac <bwrite>:
800086ac:	e5903000 	ldr	r3, [r0]
800086b0:	e3130001 	tst	r3, #1
800086b4:	0a000002 	beq	800086c4 <bwrite+0x18>
800086b8:	e3833004 	orr	r3, r3, #4
800086bc:	e5803000 	str	r3, [r0]
800086c0:	ea0009fe 	b	8000aec0 <iderw>
800086c4:	e30e041c 	movw	r0, #58396	; 0xe41c
800086c8:	e92d4010 	push	{r4, lr}
800086cc:	e3480000 	movt	r0, #32768	; 0x8000
800086d0:	eb000192 	bl	80008d20 <panic>

800086d4 <brelse>:
800086d4:	e5903000 	ldr	r3, [r0]
800086d8:	e92d4070 	push	{r4, r5, r6, lr}
800086dc:	e3130001 	tst	r3, #1
800086e0:	0a000018 	beq	80008748 <brelse+0x74>
800086e4:	e59f5068 	ldr	r5, [pc, #104]	; 80008754 <brelse+0x80>
800086e8:	e1a04000 	mov	r4, r0
800086ec:	e30f0928 	movw	r0, #63784	; 0xf928
800086f0:	e3480008 	movt	r0, #32776	; 0x8008
800086f4:	eb000d69 	bl	8000bca0 <acquire>
800086f8:	e5942010 	ldr	r2, [r4, #16]
800086fc:	e1a00004 	mov	r0, r4
80008700:	e594100c 	ldr	r1, [r4, #12]
80008704:	e5943000 	ldr	r3, [r4]
80008708:	e582100c 	str	r1, [r2, #12]
8000870c:	e594100c 	ldr	r1, [r4, #12]
80008710:	e3c33001 	bic	r3, r3, #1
80008714:	e5812010 	str	r2, [r1, #16]
80008718:	e5952534 	ldr	r2, [r5, #1332]	; 0x534
8000871c:	e59f1034 	ldr	r1, [pc, #52]	; 80008758 <brelse+0x84>
80008720:	e5842010 	str	r2, [r4, #16]
80008724:	e5952534 	ldr	r2, [r5, #1332]	; 0x534
80008728:	e584100c 	str	r1, [r4, #12]
8000872c:	e582400c 	str	r4, [r2, #12]
80008730:	e5854534 	str	r4, [r5, #1332]	; 0x534
80008734:	e5843000 	str	r3, [r4]
80008738:	eb000cfd 	bl	8000bb34 <wakeup>
8000873c:	e2450a01 	sub	r0, r5, #4096	; 0x1000
80008740:	e8bd4070 	pop	{r4, r5, r6, lr}
80008744:	ea000d8b 	b	8000bd78 <release>
80008748:	e30e0424 	movw	r0, #58404	; 0xe424
8000874c:	e3480000 	movt	r0, #32768	; 0x8000
80008750:	eb000172 	bl	80008d20 <panic>
80008754:	80090928 	.word	0x80090928
80008758:	80090e4c 	.word	0x80090e4c

8000875c <consoleread>:
8000875c:	e92d47f0 	push	{r4, r5, r6, r7, r8, r9, sl, lr}
80008760:	e1a06002 	mov	r6, r2
80008764:	e1a08001 	mov	r8, r1
80008768:	e1a09000 	mov	r9, r0
8000876c:	eb0005ad 	bl	80009e28 <iunlock>
80008770:	e3010064 	movw	r0, #4196	; 0x1064
80008774:	e3480009 	movt	r0, #32777	; 0x8009
80008778:	eb000d48 	bl	8000bca0 <acquire>
8000877c:	e3560000 	cmp	r6, #0
80008780:	d3a06000 	movle	r6, #0
80008784:	da00002a 	ble	80008834 <consoleread+0xd8>
80008788:	e3014064 	movw	r4, #4196	; 0x1064
8000878c:	e301a124 	movw	sl, #4388	; 0x1124
80008790:	e3484009 	movt	r4, #32777	; 0x8009
80008794:	e1a07006 	mov	r7, r6
80008798:	e348a009 	movt	sl, #32777	; 0x8009
8000879c:	e1a05004 	mov	r5, r4
800087a0:	e59430b4 	ldr	r3, [r4, #180]	; 0xb4
800087a4:	e59420b8 	ldr	r2, [r4, #184]	; 0xb8
800087a8:	e1520003 	cmp	r2, r3
800087ac:	0a000007 	beq	800087d0 <consoleread+0x74>
800087b0:	ea000012 	b	80008800 <consoleread+0xa4>
800087b4:	e59f00ac 	ldr	r0, [pc, #172]	; 80008868 <consoleread+0x10c>
800087b8:	e1a01005 	mov	r1, r5
800087bc:	eb000c79 	bl	8000b9a8 <sleep>
800087c0:	e59430b4 	ldr	r3, [r4, #180]	; 0xb4
800087c4:	e59420b8 	ldr	r2, [r4, #184]	; 0xb8
800087c8:	e1530002 	cmp	r3, r2
800087cc:	1a00000b 	bne	80008800 <consoleread+0xa4>
800087d0:	e59a3018 	ldr	r3, [sl, #24]
800087d4:	e5933024 	ldr	r3, [r3, #36]	; 0x24
800087d8:	e3530000 	cmp	r3, #0
800087dc:	0afffff4 	beq	800087b4 <consoleread+0x58>
800087e0:	e3010064 	movw	r0, #4196	; 0x1064
800087e4:	e3e06000 	mvn	r6, #0
800087e8:	e3480009 	movt	r0, #32777	; 0x8009
800087ec:	eb000d61 	bl	8000bd78 <release>
800087f0:	e1a00009 	mov	r0, r9
800087f4:	eb000549 	bl	80009d20 <ilock>
800087f8:	e1a00006 	mov	r0, r6
800087fc:	e8bd87f0 	pop	{r4, r5, r6, r7, r8, r9, sl, pc}
80008800:	e203207f 	and	r2, r3, #127	; 0x7f
80008804:	e2831001 	add	r1, r3, #1
80008808:	e0842002 	add	r2, r4, r2
8000880c:	e58410b4 	str	r1, [r4, #180]	; 0xb4
80008810:	e5d22034 	ldrb	r2, [r2, #52]	; 0x34
80008814:	e3520004 	cmp	r2, #4
80008818:	0a00000c 	beq	80008850 <consoleread+0xf4>
8000881c:	e4c82001 	strb	r2, [r8], #1
80008820:	e352000a 	cmp	r2, #10
80008824:	e2477001 	sub	r7, r7, #1
80008828:	0a00000c 	beq	80008860 <consoleread+0x104>
8000882c:	e3570000 	cmp	r7, #0
80008830:	1affffda 	bne	800087a0 <consoleread+0x44>
80008834:	e3010064 	movw	r0, #4196	; 0x1064
80008838:	e3480009 	movt	r0, #32777	; 0x8009
8000883c:	eb000d4d 	bl	8000bd78 <release>
80008840:	e1a00009 	mov	r0, r9
80008844:	eb000535 	bl	80009d20 <ilock>
80008848:	e1a00006 	mov	r0, r6
8000884c:	e8bd87f0 	pop	{r4, r5, r6, r7, r8, r9, sl, pc}
80008850:	e1570006 	cmp	r7, r6
80008854:	358430b4 	strcc	r3, [r4, #180]	; 0xb4
80008858:	e0466007 	sub	r6, r6, r7
8000885c:	eafffff4 	b	80008834 <consoleread+0xd8>
80008860:	e0466007 	sub	r6, r6, r7
80008864:	eafffff2 	b	80008834 <consoleread+0xd8>
80008868:	80091118 	.word	0x80091118

8000886c <drawcharacter.part.0>:
8000886c:	e30f3850 	movw	r3, #63568	; 0xf850
80008870:	e30fc000 	movw	ip, #61440	; 0xf000
80008874:	e3483008 	movt	r3, #32776	; 0x8008
80008878:	e92d47f0 	push	{r4, r5, r6, r7, r8, r9, sl, lr}
8000887c:	e30fe8b0 	movw	lr, #63664	; 0xf8b0
80008880:	e348e008 	movt	lr, #32776	; 0x8008
80008884:	e282a00f 	add	sl, r2, #15
80008888:	e5935000 	ldr	r5, [r3]
8000888c:	e348c000 	movt	ip, #32768	; 0x8000
80008890:	e0261295 	mla	r6, r5, r2, r1
80008894:	e5937004 	ldr	r7, [r3, #4]
80008898:	e1d390b8 	ldrh	r9, [r3, #8]
8000889c:	e59e8020 	ldr	r8, [lr, #32]
800088a0:	e08c0200 	add	r0, ip, r0, lsl #4
800088a4:	e4d04001 	ldrb	r4, [r0], #1
800088a8:	e3a03000 	mov	r3, #0
800088ac:	e1a0c354 	asr	ip, r4, r3
800088b0:	e081e003 	add	lr, r1, r3
800088b4:	e31c0001 	tst	ip, #1
800088b8:	0a000005 	beq	800088d4 <drawcharacter.part.0+0x68>
800088bc:	e155000e 	cmp	r5, lr
800088c0:	9a000003 	bls	800088d4 <drawcharacter.part.0+0x68>
800088c4:	e086c003 	add	ip, r6, r3
800088c8:	e1570002 	cmp	r7, r2
800088cc:	e1a0c08c 	lsl	ip, ip, #1
800088d0:	818c90b8 	strhhi	r9, [ip, r8]
800088d4:	e2833001 	add	r3, r3, #1
800088d8:	e3530008 	cmp	r3, #8
800088dc:	1afffff2 	bne	800088ac <drawcharacter.part.0+0x40>
800088e0:	e0866005 	add	r6, r6, r5
800088e4:	e2822001 	add	r2, r2, #1
800088e8:	e152000a 	cmp	r2, sl
800088ec:	1affffec 	bne	800088a4 <drawcharacter.part.0+0x38>
800088f0:	e8bd87f0 	pop	{r4, r5, r6, r7, r8, r9, sl, pc}

800088f4 <setgpucolour>:
800088f4:	e30f3850 	movw	r3, #63568	; 0xf850
800088f8:	e3483008 	movt	r3, #32776	; 0x8008
800088fc:	e5830008 	str	r0, [r3, #8]
80008900:	e12fff1e 	bx	lr

80008904 <initframebuf>:
80008904:	e30f38b0 	movw	r3, #63664	; 0xf8b0
80008908:	e3a0c000 	mov	ip, #0
8000890c:	e3483008 	movt	r3, #32776	; 0x8008
80008910:	e92d4010 	push	{r4, lr}
80008914:	e1a0e001 	mov	lr, r1
80008918:	e5830000 	str	r0, [r3]
8000891c:	e1a04000 	mov	r4, r0
80008920:	e5831004 	str	r1, [r3, #4]
80008924:	e1a00003 	mov	r0, r3
80008928:	e5834008 	str	r4, [r3, #8]
8000892c:	e3a01001 	mov	r1, #1
80008930:	e583e00c 	str	lr, [r3, #12]
80008934:	e5832014 	str	r2, [r3, #20]
80008938:	e583c010 	str	ip, [r3, #16]
8000893c:	e583c018 	str	ip, [r3, #24]
80008940:	e583c01c 	str	ip, [r3, #28]
80008944:	e583c020 	str	ip, [r3, #32]
80008948:	e583c024 	str	ip, [r3, #36]	; 0x24
8000894c:	eb0008ad 	bl	8000ac08 <writemailbox>
80008950:	e3a00001 	mov	r0, #1
80008954:	e8bd4010 	pop	{r4, lr}
80008958:	ea00089c 	b	8000abd0 <readmailbox>

8000895c <drawpixel>:
8000895c:	e30f3850 	movw	r3, #63568	; 0xf850
80008960:	e3483008 	movt	r3, #32776	; 0x8008
80008964:	e5932000 	ldr	r2, [r3]
80008968:	e1520000 	cmp	r2, r0
8000896c:	912fff1e 	bxls	lr
80008970:	e593c004 	ldr	ip, [r3, #4]
80008974:	e15c0001 	cmp	ip, r1
80008978:	912fff1e 	bxls	lr
8000897c:	e593c008 	ldr	ip, [r3, #8]
80008980:	e30f38b0 	movw	r3, #63664	; 0xf8b0
80008984:	e0220291 	mla	r2, r1, r2, r0
80008988:	e3483008 	movt	r3, #32776	; 0x8008
8000898c:	e1a02082 	lsl	r2, r2, #1
80008990:	e5933020 	ldr	r3, [r3, #32]
80008994:	e183c0b2 	strh	ip, [r3, r2]
80008998:	e12fff1e 	bx	lr

8000899c <drawcursor>:
8000899c:	e30f3850 	movw	r3, #63568	; 0xf850
800089a0:	e30f28b0 	movw	r2, #63664	; 0xf8b0
800089a4:	e3483008 	movt	r3, #32776	; 0x8008
800089a8:	e3482008 	movt	r2, #32776	; 0x8008
800089ac:	e593c000 	ldr	ip, [r3]
800089b0:	e92d40f0 	push	{r4, r5, r6, r7, lr}
800089b4:	e281700f 	add	r7, r1, #15
800089b8:	e5934004 	ldr	r4, [r3, #4]
800089bc:	e02e019c 	mla	lr, ip, r1, r0
800089c0:	e1d360b8 	ldrh	r6, [r3, #8]
800089c4:	e5925020 	ldr	r5, [r2, #32]
800089c8:	e3a03000 	mov	r3, #0
800089cc:	e0802003 	add	r2, r0, r3
800089d0:	e15c0002 	cmp	ip, r2
800089d4:	9a000003 	bls	800089e8 <drawcursor+0x4c>
800089d8:	e08e2003 	add	r2, lr, r3
800089dc:	e1540001 	cmp	r4, r1
800089e0:	e1a02082 	lsl	r2, r2, #1
800089e4:	818260b5 	strhhi	r6, [r2, r5]
800089e8:	e2833001 	add	r3, r3, #1
800089ec:	e3530008 	cmp	r3, #8
800089f0:	1afffff5 	bne	800089cc <drawcursor+0x30>
800089f4:	e08ee00c 	add	lr, lr, ip
800089f8:	e2811001 	add	r1, r1, #1
800089fc:	e1510007 	cmp	r1, r7
80008a00:	1afffff0 	bne	800089c8 <drawcursor+0x2c>
80008a04:	e8bd80f0 	pop	{r4, r5, r6, r7, pc}

80008a08 <drawcharacter>:
80008a08:	e3100080 	tst	r0, #128	; 0x80
80008a0c:	112fff1e 	bxne	lr
80008a10:	eaffff95 	b	8000886c <drawcharacter.part.0>

80008a14 <gpuputc>:
80008a14:	e92d4070 	push	{r4, r5, r6, lr}
80008a18:	e30f48b0 	movw	r4, #63664	; 0xf8b0
80008a1c:	e3484008 	movt	r4, #32776	; 0x8008
80008a20:	e5943020 	ldr	r3, [r4, #32]
80008a24:	e3530000 	cmp	r3, #0
80008a28:	08bd8070 	popeq	{r4, r5, r6, pc}
80008a2c:	e350000a 	cmp	r0, #10
80008a30:	e1a06000 	mov	r6, r0
80008a34:	0a000010 	beq	80008a7c <gpuputc+0x68>
80008a38:	e5940028 	ldr	r0, [r4, #40]	; 0x28
80008a3c:	e3560c01 	cmp	r6, #256	; 0x100
80008a40:	1a000038 	bne	80008b28 <gpuputc+0x114>
80008a44:	e3500000 	cmp	r0, #0
80008a48:	08bd8070 	popeq	{r4, r5, r6, pc}
80008a4c:	e594102c 	ldr	r1, [r4, #44]	; 0x2c
80008a50:	e30f5850 	movw	r5, #63568	; 0xf850
80008a54:	e3485008 	movt	r5, #32776	; 0x8008
80008a58:	e3a02000 	mov	r2, #0
80008a5c:	e5953010 	ldr	r3, [r5, #16]
80008a60:	e5852008 	str	r2, [r5, #8]
80008a64:	e0400003 	sub	r0, r0, r3
80008a68:	e5840028 	str	r0, [r4, #40]	; 0x28
80008a6c:	ebffffca 	bl	8000899c <drawcursor>
80008a70:	e30f3fff 	movw	r3, #65535	; 0xffff
80008a74:	e5853008 	str	r3, [r5, #8]
80008a78:	e8bd8070 	pop	{r4, r5, r6, pc}
80008a7c:	e594002c 	ldr	r0, [r4, #44]	; 0x2c
80008a80:	e30f5850 	movw	r5, #63568	; 0xf850
80008a84:	e3485008 	movt	r5, #32776	; 0x8008
80008a88:	e3a06000 	mov	r6, #0
80008a8c:	e5846028 	str	r6, [r4, #40]	; 0x28
80008a90:	e595100c 	ldr	r1, [r5, #12]
80008a94:	e5952004 	ldr	r2, [r5, #4]
80008a98:	e0810000 	add	r0, r1, r0
80008a9c:	e1500002 	cmp	r0, r2
80008aa0:	e584002c 	str	r0, [r4, #44]	; 0x2c
80008aa4:	38bd8070 	popcc	{r4, r5, r6, pc}
80008aa8:	e595c000 	ldr	ip, [r5]
80008aac:	e1a00003 	mov	r0, r3
80008ab0:	e0422001 	sub	r2, r2, r1
80008ab4:	e001019c 	mul	r1, ip, r1
80008ab8:	e1a0c08c 	lsl	ip, ip, #1
80008abc:	e0831081 	add	r1, r3, r1, lsl #1
80008ac0:	e002029c 	mul	r2, ip, r2
80008ac4:	eb000cfb 	bl	8000beb8 <memmove>
80008ac8:	e5940028 	ldr	r0, [r4, #40]	; 0x28
80008acc:	e5952000 	ldr	r2, [r5]
80008ad0:	e5951004 	ldr	r1, [r5, #4]
80008ad4:	e595300c 	ldr	r3, [r5, #12]
80008ad8:	e1520000 	cmp	r2, r0
80008adc:	e0411003 	sub	r1, r1, r3
80008ae0:	e5856008 	str	r6, [r5, #8]
80008ae4:	e584102c 	str	r1, [r4, #44]	; 0x2c
80008ae8:	8a000001 	bhi	80008af4 <gpuputc+0xe0>
80008aec:	ea000008 	b	80008b14 <gpuputc+0x100>
80008af0:	e594102c 	ldr	r1, [r4, #44]	; 0x2c
80008af4:	ebffffa8 	bl	8000899c <drawcursor>
80008af8:	e5940028 	ldr	r0, [r4, #40]	; 0x28
80008afc:	e5952010 	ldr	r2, [r5, #16]
80008b00:	e5953000 	ldr	r3, [r5]
80008b04:	e0800002 	add	r0, r0, r2
80008b08:	e1500003 	cmp	r0, r3
80008b0c:	e5840028 	str	r0, [r4, #40]	; 0x28
80008b10:	3afffff6 	bcc	80008af0 <gpuputc+0xdc>
80008b14:	e30f2fff 	movw	r2, #65535	; 0xffff
80008b18:	e3a03000 	mov	r3, #0
80008b1c:	e5852008 	str	r2, [r5, #8]
80008b20:	e5843028 	str	r3, [r4, #40]	; 0x28
80008b24:	e8bd8070 	pop	{r4, r5, r6, pc}
80008b28:	e594102c 	ldr	r1, [r4, #44]	; 0x2c
80008b2c:	e30f5850 	movw	r5, #63568	; 0xf850
80008b30:	e3485008 	movt	r5, #32776	; 0x8008
80008b34:	e3a03000 	mov	r3, #0
80008b38:	e5853008 	str	r3, [r5, #8]
80008b3c:	ebffff96 	bl	8000899c <drawcursor>
80008b40:	e5941028 	ldr	r1, [r4, #40]	; 0x28
80008b44:	e3560020 	cmp	r6, #32
80008b48:	e30f3fff 	movw	r3, #65535	; 0xffff
80008b4c:	e5853008 	str	r3, [r5, #8]
80008b50:	0a000005 	beq	80008b6c <gpuputc+0x158>
80008b54:	e3160080 	tst	r6, #128	; 0x80
80008b58:	1a000003 	bne	80008b6c <gpuputc+0x158>
80008b5c:	e594202c 	ldr	r2, [r4, #44]	; 0x2c
80008b60:	e6ef0076 	uxtb	r0, r6
80008b64:	ebffff40 	bl	8000886c <drawcharacter.part.0>
80008b68:	e5941028 	ldr	r1, [r4, #40]	; 0x28
80008b6c:	e5952010 	ldr	r2, [r5, #16]
80008b70:	e5953000 	ldr	r3, [r5]
80008b74:	e0811002 	add	r1, r1, r2
80008b78:	e1510003 	cmp	r1, r3
80008b7c:	e5841028 	str	r1, [r4, #40]	; 0x28
80008b80:	38bd8070 	popcc	{r4, r5, r6, pc}
80008b84:	e594202c 	ldr	r2, [r4, #44]	; 0x2c
80008b88:	e3a06000 	mov	r6, #0
80008b8c:	e595c00c 	ldr	ip, [r5, #12]
80008b90:	e5950004 	ldr	r0, [r5, #4]
80008b94:	e08c2002 	add	r2, ip, r2
80008b98:	e1520000 	cmp	r2, r0
80008b9c:	e584202c 	str	r2, [r4, #44]	; 0x2c
80008ba0:	e5846028 	str	r6, [r4, #40]	; 0x28
80008ba4:	38bd8070 	popcc	{r4, r5, r6, pc}
80008ba8:	e001039c 	mul	r1, ip, r3
80008bac:	e040200c 	sub	r2, r0, ip
80008bb0:	e5940020 	ldr	r0, [r4, #32]
80008bb4:	e1a03083 	lsl	r3, r3, #1
80008bb8:	e0020293 	mul	r2, r3, r2
80008bbc:	e0801081 	add	r1, r0, r1, lsl #1
80008bc0:	eb000cbc 	bl	8000beb8 <memmove>
80008bc4:	e5940028 	ldr	r0, [r4, #40]	; 0x28
80008bc8:	e5952000 	ldr	r2, [r5]
80008bcc:	e5951004 	ldr	r1, [r5, #4]
80008bd0:	e595300c 	ldr	r3, [r5, #12]
80008bd4:	e1520000 	cmp	r2, r0
80008bd8:	e0411003 	sub	r1, r1, r3
80008bdc:	e5856008 	str	r6, [r5, #8]
80008be0:	e584102c 	str	r1, [r4, #44]	; 0x2c
80008be4:	8a000001 	bhi	80008bf0 <gpuputc+0x1dc>
80008be8:	eaffffc9 	b	80008b14 <gpuputc+0x100>
80008bec:	e594102c 	ldr	r1, [r4, #44]	; 0x2c
80008bf0:	ebffff69 	bl	8000899c <drawcursor>
80008bf4:	e5940028 	ldr	r0, [r4, #40]	; 0x28
80008bf8:	e5952010 	ldr	r2, [r5, #16]
80008bfc:	e5953000 	ldr	r3, [r5]
80008c00:	e0800002 	add	r0, r0, r2
80008c04:	e1500003 	cmp	r0, r3
80008c08:	e5840028 	str	r0, [r4, #40]	; 0x28
80008c0c:	3afffff6 	bcc	80008bec <gpuputc+0x1d8>
80008c10:	eaffffbf 	b	80008b14 <gpuputc+0x100>

80008c14 <consolewrite>:
80008c14:	e92d41f0 	push	{r4, r5, r6, r7, r8, lr}
80008c18:	e1a06002 	mov	r6, r2
80008c1c:	e1a04001 	mov	r4, r1
80008c20:	e1a07000 	mov	r7, r0
80008c24:	eb00047f 	bl	80009e28 <iunlock>
80008c28:	e59f0040 	ldr	r0, [pc, #64]	; 80008c70 <consolewrite+0x5c>
80008c2c:	eb000c1b 	bl	8000bca0 <acquire>
80008c30:	e3560000 	cmp	r6, #0
80008c34:	da000007 	ble	80008c58 <consolewrite+0x44>
80008c38:	e2444001 	sub	r4, r4, #1
80008c3c:	e0845006 	add	r5, r4, r6
80008c40:	e5f40001 	ldrb	r0, [r4, #1]!
80008c44:	ebffff72 	bl	80008a14 <gpuputc>
80008c48:	e5d40000 	ldrb	r0, [r4]
80008c4c:	eb001378 	bl	8000da34 <uartputc>
80008c50:	e1540005 	cmp	r4, r5
80008c54:	1afffff9 	bne	80008c40 <consolewrite+0x2c>
80008c58:	e59f0010 	ldr	r0, [pc, #16]	; 80008c70 <consolewrite+0x5c>
80008c5c:	eb000c45 	bl	8000bd78 <release>
80008c60:	e1a00007 	mov	r0, r7
80008c64:	eb00042d 	bl	80009d20 <ilock>
80008c68:	e1a00006 	mov	r0, r6
80008c6c:	e8bd81f0 	pop	{r4, r5, r6, r7, r8, pc}
80008c70:	8008f8e0 	.word	0x8008f8e0

80008c74 <printint>:
80008c74:	e92d47f0 	push	{r4, r5, r6, r7, r8, r9, sl, lr}
80008c78:	e2527000 	subs	r7, r2, #0
80008c7c:	e24dd010 	sub	sp, sp, #16
80008c80:	e1a05001 	mov	r5, r1
80008c84:	0a000002 	beq	80008c94 <printint+0x20>
80008c88:	e3500000 	cmp	r0, #0
80008c8c:	b2604000 	rsblt	r4, r0, #0
80008c90:	ba000001 	blt	80008c9c <printint+0x28>
80008c94:	e1a04000 	mov	r4, r0
80008c98:	e3a07000 	mov	r7, #0
80008c9c:	e1a0600d 	mov	r6, sp
80008ca0:	e30e842c 	movw	r8, #58412	; 0xe42c
80008ca4:	e3488000 	movt	r8, #32768	; 0x8000
80008ca8:	e1a0a006 	mov	sl, r6
80008cac:	e3a09000 	mov	r9, #0
80008cb0:	ea000000 	b	80008cb8 <printint+0x44>
80008cb4:	e1a09003 	mov	r9, r3
80008cb8:	e1a00004 	mov	r0, r4
80008cbc:	e1a01005 	mov	r1, r5
80008cc0:	eb000cdf 	bl	8000c044 <div>
80008cc4:	e0644590 	mls	r4, r0, r5, r4
80008cc8:	e7d83004 	ldrb	r3, [r8, r4]
80008ccc:	e2504000 	subs	r4, r0, #0
80008cd0:	e4ca3001 	strb	r3, [sl], #1
80008cd4:	e2893001 	add	r3, r9, #1
80008cd8:	1afffff5 	bne	80008cb4 <printint+0x40>
80008cdc:	e3570000 	cmp	r7, #0
80008ce0:	0a000004 	beq	80008cf8 <printint+0x84>
80008ce4:	e28d2010 	add	r2, sp, #16
80008ce8:	e0824003 	add	r4, r2, r3
80008cec:	e3a0302d 	mov	r3, #45	; 0x2d
80008cf0:	e5443010 	strb	r3, [r4, #-16]
80008cf4:	e2893002 	add	r3, r9, #2
80008cf8:	e0864003 	add	r4, r6, r3
80008cfc:	e5745001 	ldrb	r5, [r4, #-1]!
80008d00:	e1a00005 	mov	r0, r5
80008d04:	ebffff42 	bl	80008a14 <gpuputc>
80008d08:	e1a00005 	mov	r0, r5
80008d0c:	eb001348 	bl	8000da34 <uartputc>
80008d10:	e1540006 	cmp	r4, r6
80008d14:	1afffff8 	bne	80008cfc <printint+0x88>
80008d18:	e28dd010 	add	sp, sp, #16
80008d1c:	e8bd87f0 	pop	{r4, r5, r6, r7, r8, r9, sl, pc}

80008d20 <panic>:
80008d20:	e52de004 	push	{lr}		; (str lr, [sp, #-4]!)
80008d24:	e24dd034 	sub	sp, sp, #52	; 0x34
80008d28:	e3a01000 	mov	r1, #0
80008d2c:	e30e4450 	movw	r4, #58448	; 0xe450
80008d30:	e58d0004 	str	r0, [sp, #4]
80008d34:	e30e0440 	movw	r0, #58432	; 0xe440
80008d38:	e3480000 	movt	r0, #32768	; 0x8000
80008d3c:	e28d5008 	add	r5, sp, #8
80008d40:	e3484000 	movt	r4, #32768	; 0x8000
80008d44:	eb000012 	bl	80008d94 <cprintf>
80008d48:	e59d0004 	ldr	r0, [sp, #4]
80008d4c:	e28d6030 	add	r6, sp, #48	; 0x30
80008d50:	eb00000f 	bl	80008d94 <cprintf>
80008d54:	e30e0b38 	movw	r0, #60216	; 0xeb38
80008d58:	e3480000 	movt	r0, #32768	; 0x8000
80008d5c:	eb00000c 	bl	80008d94 <cprintf>
80008d60:	e28d1008 	add	r1, sp, #8
80008d64:	e28d0004 	add	r0, sp, #4
80008d68:	eb000bb3 	bl	8000bc3c <getcallerpcs>
80008d6c:	e4951004 	ldr	r1, [r5], #4
80008d70:	e1a00004 	mov	r0, r4
80008d74:	eb000006 	bl	80008d94 <cprintf>
80008d78:	e1550006 	cmp	r5, r6
80008d7c:	1afffffa 	bne	80008d6c <panic+0x4c>
80008d80:	e30f38b0 	movw	r3, #63664	; 0xf8b0
80008d84:	e3a02001 	mov	r2, #1
80008d88:	e3483008 	movt	r3, #32776	; 0x8008
80008d8c:	e5832068 	str	r2, [r3, #104]	; 0x68
80008d90:	eafffffe 	b	80008d90 <panic+0x70>

80008d94 <cprintf>:
80008d94:	e92d000f 	push	{r0, r1, r2, r3}
80008d98:	e30f08b0 	movw	r0, #63664	; 0xf8b0
80008d9c:	e3480008 	movt	r0, #32776	; 0x8008
80008da0:	e92d47f0 	push	{r4, r5, r6, r7, r8, r9, sl, lr}
80008da4:	e5909064 	ldr	r9, [r0, #100]	; 0x64
80008da8:	e3590000 	cmp	r9, #0
80008dac:	1a000059 	bne	80008f18 <cprintf+0x184>
80008db0:	e59d7020 	ldr	r7, [sp, #32]
80008db4:	e3570000 	cmp	r7, #0
80008db8:	0a000059 	beq	80008f24 <cprintf+0x190>
80008dbc:	e5d74000 	ldrb	r4, [r7]
80008dc0:	e3540000 	cmp	r4, #0
80008dc4:	128da024 	addne	sl, sp, #36	; 0x24
80008dc8:	13a05000 	movne	r5, #0
80008dcc:	1a000014 	bne	80008e24 <cprintf+0x90>
80008dd0:	ea00001f 	b	80008e54 <cprintf+0xc0>
80008dd4:	e7d76003 	ldrb	r6, [r7, r3]
80008dd8:	e3560000 	cmp	r6, #0
80008ddc:	0a00001c 	beq	80008e54 <cprintf+0xc0>
80008de0:	e3560070 	cmp	r6, #112	; 0x70
80008de4:	e2855002 	add	r5, r5, #2
80008de8:	e0878005 	add	r8, r7, r5
80008dec:	0a000023 	beq	80008e80 <cprintf+0xec>
80008df0:	8a00001e 	bhi	80008e70 <cprintf+0xdc>
80008df4:	e3560025 	cmp	r6, #37	; 0x25
80008df8:	0a00003d 	beq	80008ef4 <cprintf+0x160>
80008dfc:	e3560064 	cmp	r6, #100	; 0x64
80008e00:	1a000024 	bne	80008e98 <cprintf+0x104>
80008e04:	e59a0000 	ldr	r0, [sl]
80008e08:	e3a02001 	mov	r2, #1
80008e0c:	e3a0100a 	mov	r1, #10
80008e10:	e28aa004 	add	sl, sl, #4
80008e14:	ebffff96 	bl	80008c74 <printint>
80008e18:	e5d84000 	ldrb	r4, [r8]
80008e1c:	e3540000 	cmp	r4, #0
80008e20:	0a00000b 	beq	80008e54 <cprintf+0xc0>
80008e24:	e3540025 	cmp	r4, #37	; 0x25
80008e28:	e2853001 	add	r3, r5, #1
80008e2c:	e0878003 	add	r8, r7, r3
80008e30:	0affffe7 	beq	80008dd4 <cprintf+0x40>
80008e34:	e1a00004 	mov	r0, r4
80008e38:	e1a05003 	mov	r5, r3
80008e3c:	ebfffef4 	bl	80008a14 <gpuputc>
80008e40:	e1a00004 	mov	r0, r4
80008e44:	eb0012fa 	bl	8000da34 <uartputc>
80008e48:	e5d84000 	ldrb	r4, [r8]
80008e4c:	e3540000 	cmp	r4, #0
80008e50:	1afffff3 	bne	80008e24 <cprintf+0x90>
80008e54:	e3590000 	cmp	r9, #0
80008e58:	0a000001 	beq	80008e64 <cprintf+0xd0>
80008e5c:	e59f00cc 	ldr	r0, [pc, #204]	; 80008f30 <cprintf+0x19c>
80008e60:	eb000bc4 	bl	8000bd78 <release>
80008e64:	e8bd47f0 	pop	{r4, r5, r6, r7, r8, r9, sl, lr}
80008e68:	e28dd010 	add	sp, sp, #16
80008e6c:	e12fff1e 	bx	lr
80008e70:	e3560073 	cmp	r6, #115	; 0x73
80008e74:	0a000010 	beq	80008ebc <cprintf+0x128>
80008e78:	e3560078 	cmp	r6, #120	; 0x78
80008e7c:	1a000005 	bne	80008e98 <cprintf+0x104>
80008e80:	e59a0000 	ldr	r0, [sl]
80008e84:	e3a02000 	mov	r2, #0
80008e88:	e3a01010 	mov	r1, #16
80008e8c:	e28aa004 	add	sl, sl, #4
80008e90:	ebffff77 	bl	80008c74 <printint>
80008e94:	eaffffdf 	b	80008e18 <cprintf+0x84>
80008e98:	e3a00025 	mov	r0, #37	; 0x25
80008e9c:	ebfffedc 	bl	80008a14 <gpuputc>
80008ea0:	e3a00025 	mov	r0, #37	; 0x25
80008ea4:	eb0012e2 	bl	8000da34 <uartputc>
80008ea8:	e1a00006 	mov	r0, r6
80008eac:	ebfffed8 	bl	80008a14 <gpuputc>
80008eb0:	e1a00006 	mov	r0, r6
80008eb4:	eb0012de 	bl	8000da34 <uartputc>
80008eb8:	eaffffd6 	b	80008e18 <cprintf+0x84>
80008ebc:	e59a4000 	ldr	r4, [sl]
80008ec0:	e28aa004 	add	sl, sl, #4
80008ec4:	e3540000 	cmp	r4, #0
80008ec8:	0a00000e 	beq	80008f08 <cprintf+0x174>
80008ecc:	e5d40000 	ldrb	r0, [r4]
80008ed0:	e3500000 	cmp	r0, #0
80008ed4:	0affffcf 	beq	80008e18 <cprintf+0x84>
80008ed8:	ebfffecd 	bl	80008a14 <gpuputc>
80008edc:	e5d40000 	ldrb	r0, [r4]
80008ee0:	eb0012d3 	bl	8000da34 <uartputc>
80008ee4:	e5f40001 	ldrb	r0, [r4, #1]!
80008ee8:	e3500000 	cmp	r0, #0
80008eec:	1afffff9 	bne	80008ed8 <cprintf+0x144>
80008ef0:	eaffffc8 	b	80008e18 <cprintf+0x84>
80008ef4:	e1a00004 	mov	r0, r4
80008ef8:	ebfffec5 	bl	80008a14 <gpuputc>
80008efc:	e1a00004 	mov	r0, r4
80008f00:	eb0012cb 	bl	8000da34 <uartputc>
80008f04:	eaffffc3 	b	80008e18 <cprintf+0x84>
80008f08:	e30e4454 	movw	r4, #58452	; 0xe454
80008f0c:	e3a00028 	mov	r0, #40	; 0x28
80008f10:	e3484000 	movt	r4, #32768	; 0x8000
80008f14:	eaffffef 	b	80008ed8 <cprintf+0x144>
80008f18:	e2800030 	add	r0, r0, #48	; 0x30
80008f1c:	eb000b5f 	bl	8000bca0 <acquire>
80008f20:	eaffffa2 	b	80008db0 <cprintf+0x1c>
80008f24:	e30e045c 	movw	r0, #58460	; 0xe45c
80008f28:	e3480000 	movt	r0, #32768	; 0x8000
80008f2c:	ebffff7b 	bl	80008d20 <panic>
80008f30:	8008f8e0 	.word	0x8008f8e0

80008f34 <consputc>:
80008f34:	e30f38b0 	movw	r3, #63664	; 0xf8b0
80008f38:	e3483008 	movt	r3, #32776	; 0x8008
80008f3c:	e92d4010 	push	{r4, lr}
80008f40:	e5933068 	ldr	r3, [r3, #104]	; 0x68
80008f44:	e3530000 	cmp	r3, #0
80008f48:	1a000008 	bne	80008f70 <consputc+0x3c>
80008f4c:	e3500c01 	cmp	r0, #256	; 0x100
80008f50:	e1a04000 	mov	r4, r0
80008f54:	0a000010 	beq	80008f9c <consputc+0x68>
80008f58:	e3500004 	cmp	r0, #4
80008f5c:	0a000005 	beq	80008f78 <consputc+0x44>
80008f60:	ebfffeab 	bl	80008a14 <gpuputc>
80008f64:	e1a00004 	mov	r0, r4
80008f68:	e8bd4010 	pop	{r4, lr}
80008f6c:	ea0012b0 	b	8000da34 <uartputc>
80008f70:	ebfffd4b 	bl	800084a4 <cli>
80008f74:	eafffffe 	b	80008f74 <consputc+0x40>
80008f78:	e3a0005e 	mov	r0, #94	; 0x5e
80008f7c:	ebfffea4 	bl	80008a14 <gpuputc>
80008f80:	e3a00044 	mov	r0, #68	; 0x44
80008f84:	ebfffea2 	bl	80008a14 <gpuputc>
80008f88:	e3a0005e 	mov	r0, #94	; 0x5e
80008f8c:	eb0012a8 	bl	8000da34 <uartputc>
80008f90:	e3a00044 	mov	r0, #68	; 0x44
80008f94:	e8bd4010 	pop	{r4, lr}
80008f98:	ea0012a5 	b	8000da34 <uartputc>
80008f9c:	e3a00008 	mov	r0, #8
80008fa0:	ebfffe9b 	bl	80008a14 <gpuputc>
80008fa4:	e3a00020 	mov	r0, #32
80008fa8:	ebfffe99 	bl	80008a14 <gpuputc>
80008fac:	e3a00008 	mov	r0, #8
80008fb0:	ebfffe97 	bl	80008a14 <gpuputc>
80008fb4:	e3a00008 	mov	r0, #8
80008fb8:	eb00129d 	bl	8000da34 <uartputc>
80008fbc:	e3a00020 	mov	r0, #32
80008fc0:	eb00129b 	bl	8000da34 <uartputc>
80008fc4:	e3a00008 	mov	r0, #8
80008fc8:	e8bd4010 	pop	{r4, lr}
80008fcc:	ea001298 	b	8000da34 <uartputc>

80008fd0 <consoleintr>:
80008fd0:	e92d41f0 	push	{r4, r5, r6, r7, r8, lr}
80008fd4:	e3014064 	movw	r4, #4196	; 0x1064
80008fd8:	e3484009 	movt	r4, #32777	; 0x8009
80008fdc:	e1a05000 	mov	r5, r0
80008fe0:	e28460b4 	add	r6, r4, #180	; 0xb4
80008fe4:	e1a00004 	mov	r0, r4
80008fe8:	e3a0700a 	mov	r7, #10
80008fec:	eb000b2b 	bl	8000bca0 <acquire>
80008ff0:	e12fff35 	blx	r5
80008ff4:	e2508000 	subs	r8, r0, #0
80008ff8:	ba000010 	blt	80009040 <consoleintr+0x70>
80008ffc:	e3580010 	cmp	r8, #16
80009000:	0a000034 	beq	800090d8 <consoleintr+0x108>
80009004:	da000011 	ble	80009050 <consoleintr+0x80>
80009008:	e3580015 	cmp	r8, #21
8000900c:	0a000033 	beq	800090e0 <consoleintr+0x110>
80009010:	e358007f 	cmp	r8, #127	; 0x7f
80009014:	1a00000f 	bne	80009058 <consoleintr+0x88>
80009018:	e1c42bd8 	ldrd	r2, [r4, #184]	; 0xb8
8000901c:	e1530002 	cmp	r3, r2
80009020:	0afffff2 	beq	80008ff0 <consoleintr+0x20>
80009024:	e2433001 	sub	r3, r3, #1
80009028:	e3a00c01 	mov	r0, #256	; 0x100
8000902c:	e58430bc 	str	r3, [r4, #188]	; 0xbc
80009030:	ebffffbf 	bl	80008f34 <consputc>
80009034:	e12fff35 	blx	r5
80009038:	e2508000 	subs	r8, r0, #0
8000903c:	aaffffee 	bge	80008ffc <consoleintr+0x2c>
80009040:	e3010064 	movw	r0, #4196	; 0x1064
80009044:	e3480009 	movt	r0, #32777	; 0x8009
80009048:	e8bd41f0 	pop	{r4, r5, r6, r7, r8, lr}
8000904c:	ea000b49 	b	8000bd78 <release>
80009050:	e3580008 	cmp	r8, #8
80009054:	0affffef 	beq	80009018 <consoleintr+0x48>
80009058:	e3580000 	cmp	r8, #0
8000905c:	0affffe3 	beq	80008ff0 <consoleintr+0x20>
80009060:	e59410bc 	ldr	r1, [r4, #188]	; 0xbc
80009064:	e248300a 	sub	r3, r8, #10
80009068:	e59420b4 	ldr	r2, [r4, #180]	; 0xb4
8000906c:	e16f3f13 	clz	r3, r3
80009070:	e0412002 	sub	r2, r1, r2
80009074:	e1a032a3 	lsr	r3, r3, #5
80009078:	e352007f 	cmp	r2, #127	; 0x7f
8000907c:	83833001 	orrhi	r3, r3, #1
80009080:	e3530000 	cmp	r3, #0
80009084:	1affffd9 	bne	80008ff0 <consoleintr+0x20>
80009088:	e358000d 	cmp	r8, #13
8000908c:	e2813001 	add	r3, r1, #1
80009090:	e201107f 	and	r1, r1, #127	; 0x7f
80009094:	e0841001 	add	r1, r4, r1
80009098:	0a000027 	beq	8000913c <consoleintr+0x16c>
8000909c:	e58430bc 	str	r3, [r4, #188]	; 0xbc
800090a0:	e1a00008 	mov	r0, r8
800090a4:	e5c18034 	strb	r8, [r1, #52]	; 0x34
800090a8:	ebffffa1 	bl	80008f34 <consputc>
800090ac:	e3580004 	cmp	r8, #4
800090b0:	0a000025 	beq	8000914c <consoleintr+0x17c>
800090b4:	e59430b4 	ldr	r3, [r4, #180]	; 0xb4
800090b8:	e59420bc 	ldr	r2, [r4, #188]	; 0xbc
800090bc:	e2833080 	add	r3, r3, #128	; 0x80
800090c0:	e1520003 	cmp	r2, r3
800090c4:	1affffc9 	bne	80008ff0 <consoleintr+0x20>
800090c8:	e58430b8 	str	r3, [r4, #184]	; 0xb8
800090cc:	e1a00006 	mov	r0, r6
800090d0:	eb000a97 	bl	8000bb34 <wakeup>
800090d4:	eaffffc5 	b	80008ff0 <consoleintr+0x20>
800090d8:	eb000aca 	bl	8000bc08 <procdump>
800090dc:	eaffffc3 	b	80008ff0 <consoleintr+0x20>
800090e0:	e1c42bd8 	ldrd	r2, [r4, #184]	; 0xb8
800090e4:	e1520003 	cmp	r2, r3
800090e8:	0affffc0 	beq	80008ff0 <consoleintr+0x20>
800090ec:	e2433001 	sub	r3, r3, #1
800090f0:	e203207f 	and	r2, r3, #127	; 0x7f
800090f4:	e0842002 	add	r2, r4, r2
800090f8:	e5d22034 	ldrb	r2, [r2, #52]	; 0x34
800090fc:	e352000a 	cmp	r2, #10
80009100:	1a000003 	bne	80009114 <consoleintr+0x144>
80009104:	eaffffb9 	b	80008ff0 <consoleintr+0x20>
80009108:	e5d22034 	ldrb	r2, [r2, #52]	; 0x34
8000910c:	e352000a 	cmp	r2, #10
80009110:	0affffb6 	beq	80008ff0 <consoleintr+0x20>
80009114:	e58430bc 	str	r3, [r4, #188]	; 0xbc
80009118:	e3a00c01 	mov	r0, #256	; 0x100
8000911c:	ebffff84 	bl	80008f34 <consputc>
80009120:	e1c42bd8 	ldrd	r2, [r4, #184]	; 0xb8
80009124:	e1530002 	cmp	r3, r2
80009128:	e2433001 	sub	r3, r3, #1
8000912c:	e203207f 	and	r2, r3, #127	; 0x7f
80009130:	e0842002 	add	r2, r4, r2
80009134:	1afffff3 	bne	80009108 <consoleintr+0x138>
80009138:	eaffffac 	b	80008ff0 <consoleintr+0x20>
8000913c:	e58430bc 	str	r3, [r4, #188]	; 0xbc
80009140:	e3a0000a 	mov	r0, #10
80009144:	e5c17034 	strb	r7, [r1, #52]	; 0x34
80009148:	ebffff79 	bl	80008f34 <consputc>
8000914c:	e59430bc 	ldr	r3, [r4, #188]	; 0xbc
80009150:	eaffffdc 	b	800090c8 <consoleintr+0xf8>

80009154 <gpuinit>:
80009154:	e30f3850 	movw	r3, #63568	; 0xf850
80009158:	e3483008 	movt	r3, #32776	; 0x8008
8000915c:	e92d4010 	push	{r4, lr}
80009160:	e5932014 	ldr	r2, [r3, #20]
80009164:	e1c300d0 	ldrd	r0, [r3]
80009168:	ebfffde5 	bl	80008904 <initframebuf>
8000916c:	e3500000 	cmp	r0, #0
80009170:	1a000006 	bne	80009190 <gpuinit+0x3c>
80009174:	e30f28b0 	movw	r2, #63664	; 0xf8b0
80009178:	e3482008 	movt	r2, #32776	; 0x8008
8000917c:	e5923020 	ldr	r3, [r2, #32]
80009180:	e3c33103 	bic	r3, r3, #-1073741824	; 0xc0000000
80009184:	e2833101 	add	r3, r3, #1073741824	; 0x40000000
80009188:	e5823020 	str	r3, [r2, #32]
8000918c:	e8bd8010 	pop	{r4, pc}
80009190:	e30f38b0 	movw	r3, #63664	; 0xf8b0
80009194:	e30e0468 	movw	r0, #58472	; 0xe468
80009198:	e3483008 	movt	r3, #32776	; 0x8008
8000919c:	e3a02000 	mov	r2, #0
800091a0:	e3480000 	movt	r0, #32768	; 0x8000
800091a4:	e8bd4010 	pop	{r4, lr}
800091a8:	e5832020 	str	r2, [r3, #32]
800091ac:	eafffef8 	b	80008d94 <cprintf>

800091b0 <consoleinit>:
800091b0:	e92d41f0 	push	{r4, r5, r6, r7, r8, lr}
800091b4:	e30f48b0 	movw	r4, #63664	; 0xf8b0
800091b8:	e3484008 	movt	r4, #32776	; 0x8008
800091bc:	e30e1490 	movw	r1, #58512	; 0xe490
800091c0:	e3481000 	movt	r1, #32768	; 0x8000
800091c4:	e3017064 	movw	r7, #4196	; 0x1064
800091c8:	e3487009 	movt	r7, #32777	; 0x8009
800091cc:	e3a05000 	mov	r5, #0
800091d0:	e5845020 	str	r5, [r4, #32]
800091d4:	e2840030 	add	r0, r4, #48	; 0x30
800091d8:	e3016b98 	movw	r6, #7064	; 0x1b98
800091dc:	eb000a91 	bl	8000bc28 <initlock>
800091e0:	e3486009 	movt	r6, #32777	; 0x8009
800091e4:	e3a020c0 	mov	r2, #192	; 0xc0
800091e8:	e1a01005 	mov	r1, r5
800091ec:	e1a00007 	mov	r0, r7
800091f0:	eb000b02 	bl	8000be00 <memset>
800091f4:	e30e1498 	movw	r1, #58520	; 0xe498
800091f8:	e1a00007 	mov	r0, r7
800091fc:	e3481000 	movt	r1, #32768	; 0x8000
80009200:	eb000a88 	bl	8000bc28 <initlock>
80009204:	e1a01005 	mov	r1, r5
80009208:	e3a02050 	mov	r2, #80	; 0x50
8000920c:	e1a00006 	mov	r0, r6
80009210:	eb000afa 	bl	8000be00 <memset>
80009214:	e5845068 	str	r5, [r4, #104]	; 0x68
80009218:	e3082c14 	movw	r2, #35860	; 0x8c14
8000921c:	e3482000 	movt	r2, #32768	; 0x8000
80009220:	e308375c 	movw	r3, #34652	; 0x875c
80009224:	e3483000 	movt	r3, #32768	; 0x8000
80009228:	e3a01001 	mov	r1, #1
8000922c:	e584502c 	str	r5, [r4, #44]	; 0x2c
80009230:	e5845028 	str	r5, [r4, #40]	; 0x28
80009234:	e5841064 	str	r1, [r4, #100]	; 0x64
80009238:	e586200c 	str	r2, [r6, #12]
8000923c:	e5863008 	str	r3, [r6, #8]
80009240:	e8bd81f0 	pop	{r4, r5, r6, r7, r8, pc}

80009244 <exec>:
80009244:	e92d4ff0 	push	{r4, r5, r6, r7, r8, r9, sl, fp, lr}
80009248:	e24dd0f4 	sub	sp, sp, #244	; 0xf4
8000924c:	e1a08001 	mov	r8, r1
80009250:	eb0004cc 	bl	8000a588 <namei>
80009254:	e2504000 	subs	r4, r0, #0
80009258:	0a000009 	beq	80009284 <exec+0x40>
8000925c:	eb0002af 	bl	80009d20 <ilock>
80009260:	e3a03034 	mov	r3, #52	; 0x34
80009264:	e3a02000 	mov	r2, #0
80009268:	e28d102c 	add	r1, sp, #44	; 0x2c
8000926c:	e1a00004 	mov	r0, r4
80009270:	eb000366 	bl	8000a010 <readi>
80009274:	e3500033 	cmp	r0, #51	; 0x33
80009278:	8a000004 	bhi	80009290 <exec+0x4c>
8000927c:	e1a00004 	mov	r0, r4
80009280:	eb000352 	bl	80009fd0 <iunlockput>
80009284:	e3e00000 	mvn	r0, #0
80009288:	e28dd0f4 	add	sp, sp, #244	; 0xf4
8000928c:	e8bd8ff0 	pop	{r4, r5, r6, r7, r8, r9, sl, fp, pc}
80009290:	e59d202c 	ldr	r2, [sp, #44]	; 0x2c
80009294:	e304357f 	movw	r3, #17791	; 0x457f
80009298:	e344364c 	movt	r3, #17996	; 0x464c
8000929c:	e1520003 	cmp	r2, r3
800092a0:	1afffff5 	bne	8000927c <exec+0x38>
800092a4:	eb0012d8 	bl	8000de0c <setupkvm>
800092a8:	e2509000 	subs	r9, r0, #0
800092ac:	0afffff2 	beq	8000927c <exec+0x38>
800092b0:	e1dd15b8 	ldrh	r1, [sp, #88]	; 0x58
800092b4:	e59d5048 	ldr	r5, [sp, #72]	; 0x48
800092b8:	e3510000 	cmp	r1, #0
800092bc:	0a000075 	beq	80009498 <exec+0x254>
800092c0:	e3a07000 	mov	r7, #0
800092c4:	e1a06007 	mov	r6, r7
800092c8:	ea000016 	b	80009328 <exec+0xe4>
800092cc:	e59d300c 	ldr	r3, [sp, #12]
800092d0:	e3530001 	cmp	r3, #1
800092d4:	1a000010 	bne	8000931c <exec+0xd8>
800092d8:	e1cd21dc 	ldrd	r2, [sp, #28]
800092dc:	e1530002 	cmp	r3, r2
800092e0:	3a00001b 	bcc	80009354 <exec+0x110>
800092e4:	e59d2014 	ldr	r2, [sp, #20]
800092e8:	e0832002 	add	r2, r3, r2
800092ec:	eb001373 	bl	8000e0c0 <allocuvm>
800092f0:	e2507000 	subs	r7, r0, #0
800092f4:	e1a02004 	mov	r2, r4
800092f8:	e1a00009 	mov	r0, r9
800092fc:	0a000014 	beq	80009354 <exec+0x110>
80009300:	e59dc01c 	ldr	ip, [sp, #28]
80009304:	e59d3010 	ldr	r3, [sp, #16]
80009308:	e59d1014 	ldr	r1, [sp, #20]
8000930c:	e58dc000 	str	ip, [sp]
80009310:	eb001331 	bl	8000dfdc <loaduvm>
80009314:	e3500000 	cmp	r0, #0
80009318:	ba00000d 	blt	80009354 <exec+0x110>
8000931c:	e1dd35b8 	ldrh	r3, [sp, #88]	; 0x58
80009320:	e1530006 	cmp	r3, r6
80009324:	da00000d 	ble	80009360 <exec+0x11c>
80009328:	e1a02005 	mov	r2, r5
8000932c:	e28d100c 	add	r1, sp, #12
80009330:	e3a03020 	mov	r3, #32
80009334:	e1a00004 	mov	r0, r4
80009338:	e2866001 	add	r6, r6, #1
8000933c:	eb000333 	bl	8000a010 <readi>
80009340:	e3500020 	cmp	r0, #32
80009344:	e1a01007 	mov	r1, r7
80009348:	e1a00009 	mov	r0, r9
8000934c:	e2855020 	add	r5, r5, #32
80009350:	0affffdd 	beq	800092cc <exec+0x88>
80009354:	e1a00009 	mov	r0, r9
80009358:	eb00139a 	bl	8000e1c8 <freevm>
8000935c:	eaffffc6 	b	8000927c <exec+0x38>
80009360:	e2877eff 	add	r7, r7, #4080	; 0xff0
80009364:	e287700f 	add	r7, r7, #15
80009368:	e3c77eff 	bic	r7, r7, #4080	; 0xff0
8000936c:	e3c7700f 	bic	r7, r7, #15
80009370:	e2875a02 	add	r5, r7, #8192	; 0x2000
80009374:	e1a00004 	mov	r0, r4
80009378:	eb000314 	bl	80009fd0 <iunlockput>
8000937c:	e1a01007 	mov	r1, r7
80009380:	e1a02005 	mov	r2, r5
80009384:	e1a00009 	mov	r0, r9
80009388:	eb00134c 	bl	8000e0c0 <allocuvm>
8000938c:	e2507000 	subs	r7, r0, #0
80009390:	1a000003 	bne	800093a4 <exec+0x160>
80009394:	e1a00009 	mov	r0, r9
80009398:	eb00138a 	bl	8000e1c8 <freevm>
8000939c:	e3e00000 	mvn	r0, #0
800093a0:	eaffffb8 	b	80009288 <exec+0x44>
800093a4:	e1a00009 	mov	r0, r9
800093a8:	e2471a02 	sub	r1, r7, #8192	; 0x2000
800093ac:	eb0013a1 	bl	8000e238 <clearpteu>
800093b0:	e5980000 	ldr	r0, [r8]
800093b4:	e3500000 	cmp	r0, #0
800093b8:	01a06000 	moveq	r6, r0
800093bc:	01a05007 	moveq	r5, r7
800093c0:	0a00001c 	beq	80009438 <exec+0x1f4>
800093c4:	e1a04008 	mov	r4, r8
800093c8:	e28da068 	add	sl, sp, #104	; 0x68
800093cc:	e1a05007 	mov	r5, r7
800093d0:	e3a06000 	mov	r6, #0
800093d4:	ea000005 	b	800093f0 <exec+0x1ac>
800093d8:	e5940000 	ldr	r0, [r4]
800093dc:	e5aa5004 	str	r5, [sl, #4]!
800093e0:	e3500000 	cmp	r0, #0
800093e4:	0a000013 	beq	80009438 <exec+0x1f4>
800093e8:	e3560020 	cmp	r6, #32
800093ec:	0a00000e 	beq	8000942c <exec+0x1e8>
800093f0:	e2866001 	add	r6, r6, #1
800093f4:	eb000b06 	bl	8000c014 <strlen>
800093f8:	e494b004 	ldr	fp, [r4], #4
800093fc:	e1e00000 	mvn	r0, r0
80009400:	e0805005 	add	r5, r0, r5
80009404:	e1a0000b 	mov	r0, fp
80009408:	e3c55003 	bic	r5, r5, #3
8000940c:	eb000b00 	bl	8000c014 <strlen>
80009410:	e2803001 	add	r3, r0, #1
80009414:	e1a0200b 	mov	r2, fp
80009418:	e1a01005 	mov	r1, r5
8000941c:	e1a00009 	mov	r0, r9
80009420:	eb0013d6 	bl	8000e380 <copyout>
80009424:	e3500000 	cmp	r0, #0
80009428:	aaffffea 	bge	800093d8 <exec+0x194>
8000942c:	e1a00009 	mov	r0, r9
80009430:	eb001364 	bl	8000e1c8 <freevm>
80009434:	eaffff92 	b	80009284 <exec+0x40>
80009438:	e2863001 	add	r3, r6, #1
8000943c:	e2861003 	add	r1, r6, #3
80009440:	e28d00f0 	add	r0, sp, #240	; 0xf0
80009444:	e3a0a000 	mov	sl, #0
80009448:	e1a03103 	lsl	r3, r3, #2
8000944c:	e3e04000 	mvn	r4, #0
80009450:	e045c003 	sub	ip, r5, r3
80009454:	e283300c 	add	r3, r3, #12
80009458:	e0800101 	add	r0, r0, r1, lsl #2
8000945c:	e28d2060 	add	r2, sp, #96	; 0x60
80009460:	e0455003 	sub	r5, r5, r3
80009464:	e500a090 	str	sl, [r0, #-144]	; 0xffffff70
80009468:	e1a01005 	mov	r1, r5
8000946c:	e58dc068 	str	ip, [sp, #104]	; 0x68
80009470:	e1a00009 	mov	r0, r9
80009474:	e58d6064 	str	r6, [sp, #100]	; 0x64
80009478:	e58d4060 	str	r4, [sp, #96]	; 0x60
8000947c:	eb0013bf 	bl	8000e380 <copyout>
80009480:	e150000a 	cmp	r0, sl
80009484:	aa000006 	bge	800094a4 <exec+0x260>
80009488:	e1a00009 	mov	r0, r9
8000948c:	eb00134d 	bl	8000e1c8 <freevm>
80009490:	e1a00004 	mov	r0, r4
80009494:	eaffff7b 	b	80009288 <exec+0x44>
80009498:	e1a07001 	mov	r7, r1
8000949c:	e3a05a02 	mov	r5, #8192	; 0x2000
800094a0:	eaffffb3 	b	80009374 <exec+0x130>
800094a4:	e5981000 	ldr	r1, [r8]
800094a8:	e3014124 	movw	r4, #4388	; 0x1124
800094ac:	e3484009 	movt	r4, #32777	; 0x8009
800094b0:	e3a02010 	mov	r2, #16
800094b4:	e5940018 	ldr	r0, [r4, #24]
800094b8:	e280006c 	add	r0, r0, #108	; 0x6c
800094bc:	eb000ac4 	bl	8000bfd4 <safestrcpy>
800094c0:	e5943018 	ldr	r3, [r4, #24]
800094c4:	e59d1044 	ldr	r1, [sp, #68]	; 0x44
800094c8:	e5932018 	ldr	r2, [r3, #24]
800094cc:	e1a00003 	mov	r0, r3
800094d0:	e5934004 	ldr	r4, [r3, #4]
800094d4:	e5837000 	str	r7, [r3]
800094d8:	e5839004 	str	r9, [r3, #4]
800094dc:	e5821050 	str	r1, [r2, #80]	; 0x50
800094e0:	e5825000 	str	r5, [r2]
800094e4:	e59d3064 	ldr	r3, [sp, #100]	; 0x64
800094e8:	e5823004 	str	r3, [r2, #4]
800094ec:	e59d3068 	ldr	r3, [sp, #104]	; 0x68
800094f0:	e5823008 	str	r3, [r2, #8]
800094f4:	eb001288 	bl	8000df1c <switchuvm>
800094f8:	e1a00004 	mov	r0, r4
800094fc:	eb001331 	bl	8000e1c8 <freevm>
80009500:	e1a0000a 	mov	r0, sl
80009504:	eaffff5f 	b	80009288 <exec+0x44>

80009508 <fileinit>:
80009508:	e92d4010 	push	{r4, lr}
8000950c:	e3014204 	movw	r4, #4612	; 0x1204
80009510:	e3484009 	movt	r4, #32777	; 0x8009
80009514:	e3a01000 	mov	r1, #0
80009518:	e1a00004 	mov	r0, r4
8000951c:	e3002994 	movw	r2, #2452	; 0x994
80009520:	eb000a36 	bl	8000be00 <memset>
80009524:	e30e14a0 	movw	r1, #58528	; 0xe4a0
80009528:	e1a00004 	mov	r0, r4
8000952c:	e3481000 	movt	r1, #32768	; 0x8000
80009530:	e8bd4010 	pop	{r4, lr}
80009534:	ea0009bb 	b	8000bc28 <initlock>

80009538 <filealloc>:
80009538:	e92d4010 	push	{r4, lr}
8000953c:	e3010204 	movw	r0, #4612	; 0x1204
80009540:	e59f4058 	ldr	r4, [pc, #88]	; 800095a0 <filealloc+0x68>
80009544:	e3480009 	movt	r0, #32777	; 0x8009
80009548:	eb0009d4 	bl	8000bca0 <acquire>
8000954c:	e2842e96 	add	r2, r4, #2400	; 0x960
80009550:	ea000002 	b	80009560 <filealloc+0x28>
80009554:	e2844018 	add	r4, r4, #24
80009558:	e1540002 	cmp	r4, r2
8000955c:	2a000009 	bcs	80009588 <filealloc+0x50>
80009560:	e5943004 	ldr	r3, [r4, #4]
80009564:	e3530000 	cmp	r3, #0
80009568:	1afffff9 	bne	80009554 <filealloc+0x1c>
8000956c:	e3a03001 	mov	r3, #1
80009570:	e3010204 	movw	r0, #4612	; 0x1204
80009574:	e5843004 	str	r3, [r4, #4]
80009578:	e3480009 	movt	r0, #32777	; 0x8009
8000957c:	eb0009fd 	bl	8000bd78 <release>
80009580:	e1a00004 	mov	r0, r4
80009584:	e8bd8010 	pop	{r4, pc}
80009588:	e3010204 	movw	r0, #4612	; 0x1204
8000958c:	e3a04000 	mov	r4, #0
80009590:	e3480009 	movt	r0, #32777	; 0x8009
80009594:	eb0009f7 	bl	8000bd78 <release>
80009598:	e1a00004 	mov	r0, r4
8000959c:	e8bd8010 	pop	{r4, pc}
800095a0:	80091238 	.word	0x80091238

800095a4 <filedup>:
800095a4:	e92d4010 	push	{r4, lr}
800095a8:	e1a04000 	mov	r4, r0
800095ac:	e3010204 	movw	r0, #4612	; 0x1204
800095b0:	e3480009 	movt	r0, #32777	; 0x8009
800095b4:	eb0009b9 	bl	8000bca0 <acquire>
800095b8:	e5943004 	ldr	r3, [r4, #4]
800095bc:	e3530000 	cmp	r3, #0
800095c0:	da000006 	ble	800095e0 <filedup+0x3c>
800095c4:	e2833001 	add	r3, r3, #1
800095c8:	e3010204 	movw	r0, #4612	; 0x1204
800095cc:	e5843004 	str	r3, [r4, #4]
800095d0:	e3480009 	movt	r0, #32777	; 0x8009
800095d4:	eb0009e7 	bl	8000bd78 <release>
800095d8:	e1a00004 	mov	r0, r4
800095dc:	e8bd8010 	pop	{r4, pc}
800095e0:	e30e04a8 	movw	r0, #58536	; 0xe4a8
800095e4:	e3480000 	movt	r0, #32768	; 0x8000
800095e8:	ebfffdcc 	bl	80008d20 <panic>

800095ec <fileclose>:
800095ec:	e92d41f0 	push	{r4, r5, r6, r7, r8, lr}
800095f0:	e1a04000 	mov	r4, r0
800095f4:	e3010204 	movw	r0, #4612	; 0x1204
800095f8:	e3480009 	movt	r0, #32777	; 0x8009
800095fc:	eb0009a7 	bl	8000bca0 <acquire>
80009600:	e5943004 	ldr	r3, [r4, #4]
80009604:	e3530000 	cmp	r3, #0
80009608:	da00001c 	ble	80009680 <fileclose+0x94>
8000960c:	e2433001 	sub	r3, r3, #1
80009610:	e5843004 	str	r3, [r4, #4]
80009614:	e3530000 	cmp	r3, #0
80009618:	0a000003 	beq	8000962c <fileclose+0x40>
8000961c:	e3010204 	movw	r0, #4612	; 0x1204
80009620:	e3480009 	movt	r0, #32777	; 0x8009
80009624:	e8bd41f0 	pop	{r4, r5, r6, r7, r8, lr}
80009628:	ea0009d2 	b	8000bd78 <release>
8000962c:	e5945000 	ldr	r5, [r4]
80009630:	e3010204 	movw	r0, #4612	; 0x1204
80009634:	e5843000 	str	r3, [r4]
80009638:	e3480009 	movt	r0, #32777	; 0x8009
8000963c:	e5d47009 	ldrb	r7, [r4, #9]
80009640:	e594600c 	ldr	r6, [r4, #12]
80009644:	e5944010 	ldr	r4, [r4, #16]
80009648:	eb0009ca 	bl	8000bd78 <release>
8000964c:	e3550001 	cmp	r5, #1
80009650:	0a000006 	beq	80009670 <fileclose+0x84>
80009654:	e3550002 	cmp	r5, #2
80009658:	18bd81f0 	popne	{r4, r5, r6, r7, r8, pc}
8000965c:	eb0004c6 	bl	8000a97c <begin_trans>
80009660:	e1a00004 	mov	r0, r4
80009664:	eb000207 	bl	80009e88 <iput>
80009668:	e8bd41f0 	pop	{r4, r5, r6, r7, r8, lr}
8000966c:	ea0004d8 	b	8000a9d4 <commit_trans>
80009670:	e1a01007 	mov	r1, r7
80009674:	e1a00006 	mov	r0, r6
80009678:	e8bd41f0 	pop	{r4, r5, r6, r7, r8, lr}
8000967c:	ea0006b6 	b	8000b15c <pipeclose>
80009680:	e30e04b0 	movw	r0, #58544	; 0xe4b0
80009684:	e3480000 	movt	r0, #32768	; 0x8000
80009688:	ebfffda4 	bl	80008d20 <panic>

8000968c <filestat>:
8000968c:	e5903000 	ldr	r3, [r0]
80009690:	e3530002 	cmp	r3, #2
80009694:	1a00000b 	bne	800096c8 <filestat+0x3c>
80009698:	e92d4070 	push	{r4, r5, r6, lr}
8000969c:	e1a04000 	mov	r4, r0
800096a0:	e5900010 	ldr	r0, [r0, #16]
800096a4:	e1a05001 	mov	r5, r1
800096a8:	eb00019c 	bl	80009d20 <ilock>
800096ac:	e5940010 	ldr	r0, [r4, #16]
800096b0:	e1a01005 	mov	r1, r5
800096b4:	eb00024b 	bl	80009fe8 <stati>
800096b8:	e5940010 	ldr	r0, [r4, #16]
800096bc:	eb0001d9 	bl	80009e28 <iunlock>
800096c0:	e3a00000 	mov	r0, #0
800096c4:	e8bd8070 	pop	{r4, r5, r6, pc}
800096c8:	e3e00000 	mvn	r0, #0
800096cc:	e12fff1e 	bx	lr

800096d0 <fileread>:
800096d0:	e92d4070 	push	{r4, r5, r6, lr}
800096d4:	e5d0e008 	ldrb	lr, [r0, #8]
800096d8:	e35e0000 	cmp	lr, #0
800096dc:	0a000019 	beq	80009748 <fileread+0x78>
800096e0:	e590e000 	ldr	lr, [r0]
800096e4:	e35e0001 	cmp	lr, #1
800096e8:	0a000013 	beq	8000973c <fileread+0x6c>
800096ec:	e35e0002 	cmp	lr, #2
800096f0:	e1a04000 	mov	r4, r0
800096f4:	1a000015 	bne	80009750 <fileread+0x80>
800096f8:	e5900010 	ldr	r0, [r0, #16]
800096fc:	e1a05001 	mov	r5, r1
80009700:	e1a06002 	mov	r6, r2
80009704:	eb000185 	bl	80009d20 <ilock>
80009708:	e5942014 	ldr	r2, [r4, #20]
8000970c:	e1a03006 	mov	r3, r6
80009710:	e5940010 	ldr	r0, [r4, #16]
80009714:	e1a01005 	mov	r1, r5
80009718:	eb00023c 	bl	8000a010 <readi>
8000971c:	e2505000 	subs	r5, r0, #0
80009720:	e5940010 	ldr	r0, [r4, #16]
80009724:	c5943014 	ldrgt	r3, [r4, #20]
80009728:	c0833005 	addgt	r3, r3, r5
8000972c:	c5843014 	strgt	r3, [r4, #20]
80009730:	eb0001bc 	bl	80009e28 <iunlock>
80009734:	e1a00005 	mov	r0, r5
80009738:	e8bd8070 	pop	{r4, r5, r6, pc}
8000973c:	e590000c 	ldr	r0, [r0, #12]
80009740:	e8bd4070 	pop	{r4, r5, r6, lr}
80009744:	ea0006d2 	b	8000b294 <piperead>
80009748:	e3e05000 	mvn	r5, #0
8000974c:	eafffff8 	b	80009734 <fileread+0x64>
80009750:	e30e04bc 	movw	r0, #58556	; 0xe4bc
80009754:	e3480000 	movt	r0, #32768	; 0x8000
80009758:	ebfffd70 	bl	80008d20 <panic>

8000975c <filewrite>:
8000975c:	e92d47f0 	push	{r4, r5, r6, r7, r8, r9, sl, lr}
80009760:	e5d03009 	ldrb	r3, [r0, #9]
80009764:	e3530000 	cmp	r3, #0
80009768:	0a000028 	beq	80009810 <filewrite+0xb4>
8000976c:	e5903000 	ldr	r3, [r0]
80009770:	e3530001 	cmp	r3, #1
80009774:	0a00002d 	beq	80009830 <filewrite+0xd4>
80009778:	e3530002 	cmp	r3, #2
8000977c:	e1a05000 	mov	r5, r0
80009780:	1a000030 	bne	80009848 <filewrite+0xec>
80009784:	e3520000 	cmp	r2, #0
80009788:	e1a08002 	mov	r8, r2
8000978c:	da000022 	ble	8000981c <filewrite+0xc0>
80009790:	e1a09001 	mov	r9, r1
80009794:	e3a06000 	mov	r6, #0
80009798:	ea00000a 	b	800097c8 <filewrite+0x6c>
8000979c:	e5953014 	ldr	r3, [r5, #20]
800097a0:	e5950010 	ldr	r0, [r5, #16]
800097a4:	e0833007 	add	r3, r3, r7
800097a8:	e5853014 	str	r3, [r5, #20]
800097ac:	eb00019d 	bl	80009e28 <iunlock>
800097b0:	eb000487 	bl	8000a9d4 <commit_trans>
800097b4:	e1540007 	cmp	r4, r7
800097b8:	1a00001f 	bne	8000983c <filewrite+0xe0>
800097bc:	e0866004 	add	r6, r6, r4
800097c0:	e1580006 	cmp	r8, r6
800097c4:	da000015 	ble	80009820 <filewrite+0xc4>
800097c8:	e0484006 	sub	r4, r8, r6
800097cc:	e3540c06 	cmp	r4, #1536	; 0x600
800097d0:	a3a04c06 	movge	r4, #1536	; 0x600
800097d4:	eb000468 	bl	8000a97c <begin_trans>
800097d8:	e5950010 	ldr	r0, [r5, #16]
800097dc:	eb00014f 	bl	80009d20 <ilock>
800097e0:	e5952014 	ldr	r2, [r5, #20]
800097e4:	e1a03004 	mov	r3, r4
800097e8:	e0891006 	add	r1, r9, r6
800097ec:	e5950010 	ldr	r0, [r5, #16]
800097f0:	eb000241 	bl	8000a0fc <writei>
800097f4:	e2507000 	subs	r7, r0, #0
800097f8:	caffffe7 	bgt	8000979c <filewrite+0x40>
800097fc:	e5950010 	ldr	r0, [r5, #16]
80009800:	eb000188 	bl	80009e28 <iunlock>
80009804:	eb000472 	bl	8000a9d4 <commit_trans>
80009808:	e3570000 	cmp	r7, #0
8000980c:	0affffe8 	beq	800097b4 <filewrite+0x58>
80009810:	e3e06000 	mvn	r6, #0
80009814:	e1a00006 	mov	r0, r6
80009818:	e8bd87f0 	pop	{r4, r5, r6, r7, r8, r9, sl, pc}
8000981c:	e3a06000 	mov	r6, #0
80009820:	e1580006 	cmp	r8, r6
80009824:	1afffff9 	bne	80009810 <filewrite+0xb4>
80009828:	e1a00006 	mov	r0, r6
8000982c:	e8bd87f0 	pop	{r4, r5, r6, r7, r8, r9, sl, pc}
80009830:	e590000c 	ldr	r0, [r0, #12]
80009834:	e8bd47f0 	pop	{r4, r5, r6, r7, r8, r9, sl, lr}
80009838:	ea00065f 	b	8000b1bc <pipewrite>
8000983c:	e30e04c8 	movw	r0, #58568	; 0xe4c8
80009840:	e3480000 	movt	r0, #32768	; 0x8000
80009844:	ebfffd35 	bl	80008d20 <panic>
80009848:	e30e04d8 	movw	r0, #58584	; 0xe4d8
8000984c:	e3480000 	movt	r0, #32768	; 0x8000
80009850:	ebfffd32 	bl	80008d20 <panic>

80009854 <iget>:
80009854:	e92d41f0 	push	{r4, r5, r6, r7, r8, lr}
80009858:	e1a06000 	mov	r6, r0
8000985c:	e59f40c4 	ldr	r4, [pc, #196]	; 80009928 <iget+0xd4>
80009860:	e3010be8 	movw	r0, #7144	; 0x1be8
80009864:	e3480009 	movt	r0, #32777	; 0x8009
80009868:	e1a07001 	mov	r7, r1
8000986c:	e3a05000 	mov	r5, #0
80009870:	eb00090a 	bl	8000bca0 <acquire>
80009874:	e2840efa 	add	r0, r4, #4000	; 0xfa0
80009878:	ea000002 	b	80009888 <iget+0x34>
8000987c:	e2844050 	add	r4, r4, #80	; 0x50
80009880:	e1540000 	cmp	r4, r0
80009884:	2a00000c 	bcs	800098bc <iget+0x68>
80009888:	e5943008 	ldr	r3, [r4, #8]
8000988c:	e3530000 	cmp	r3, #0
80009890:	da000002 	ble	800098a0 <iget+0x4c>
80009894:	e5942000 	ldr	r2, [r4]
80009898:	e1520006 	cmp	r2, r6
8000989c:	0a000013 	beq	800098f0 <iget+0x9c>
800098a0:	e3550000 	cmp	r5, #0
800098a4:	1afffff4 	bne	8000987c <iget+0x28>
800098a8:	e3530000 	cmp	r3, #0
800098ac:	01a05004 	moveq	r5, r4
800098b0:	e2844050 	add	r4, r4, #80	; 0x50
800098b4:	e1540000 	cmp	r4, r0
800098b8:	3afffff2 	bcc	80009888 <iget+0x34>
800098bc:	e3550000 	cmp	r5, #0
800098c0:	0a000015 	beq	8000991c <iget+0xc8>
800098c4:	e5856000 	str	r6, [r5]
800098c8:	e3a02001 	mov	r2, #1
800098cc:	e5857004 	str	r7, [r5, #4]
800098d0:	e3a03000 	mov	r3, #0
800098d4:	e5852008 	str	r2, [r5, #8]
800098d8:	e3010be8 	movw	r0, #7144	; 0x1be8
800098dc:	e585300c 	str	r3, [r5, #12]
800098e0:	e3480009 	movt	r0, #32777	; 0x8009
800098e4:	eb000923 	bl	8000bd78 <release>
800098e8:	e1a00005 	mov	r0, r5
800098ec:	e8bd81f0 	pop	{r4, r5, r6, r7, r8, pc}
800098f0:	e5942004 	ldr	r2, [r4, #4]
800098f4:	e1520007 	cmp	r2, r7
800098f8:	1affffe8 	bne	800098a0 <iget+0x4c>
800098fc:	e3010be8 	movw	r0, #7144	; 0x1be8
80009900:	e2833001 	add	r3, r3, #1
80009904:	e3480009 	movt	r0, #32777	; 0x8009
80009908:	e1a05004 	mov	r5, r4
8000990c:	e5843008 	str	r3, [r4, #8]
80009910:	eb000918 	bl	8000bd78 <release>
80009914:	e1a00005 	mov	r0, r5
80009918:	e8bd81f0 	pop	{r4, r5, r6, r7, r8, pc}
8000991c:	e30e04e4 	movw	r0, #58596	; 0xe4e4
80009920:	e3480000 	movt	r0, #32768	; 0x8000
80009924:	ebfffcfd 	bl	80008d20 <panic>
80009928:	80091c1c 	.word	0x80091c1c

8000992c <readsb>:
8000992c:	e92d4070 	push	{r4, r5, r6, lr}
80009930:	e1a05001 	mov	r5, r1
80009934:	e3a01001 	mov	r1, #1
80009938:	ebfffb1b 	bl	800085ac <bread>
8000993c:	e1a04000 	mov	r4, r0
80009940:	e3a02010 	mov	r2, #16
80009944:	e1a00005 	mov	r0, r5
80009948:	e2841018 	add	r1, r4, #24
8000994c:	eb000959 	bl	8000beb8 <memmove>
80009950:	e1a00004 	mov	r0, r4
80009954:	e8bd4070 	pop	{r4, r5, r6, lr}
80009958:	eafffb5d 	b	800086d4 <brelse>

8000995c <bfree>:
8000995c:	e92d4030 	push	{r4, r5, lr}
80009960:	e24dd014 	sub	sp, sp, #20
80009964:	e1a04001 	mov	r4, r1
80009968:	e1a0100d 	mov	r1, sp
8000996c:	e1a05000 	mov	r5, r0
80009970:	ebffffed 	bl	8000992c <readsb>
80009974:	e59d1008 	ldr	r1, [sp, #8]
80009978:	e1a00005 	mov	r0, r5
8000997c:	e1a011a1 	lsr	r1, r1, #3
80009980:	e2811003 	add	r1, r1, #3
80009984:	e0811624 	add	r1, r1, r4, lsr #12
80009988:	ebfffb07 	bl	800085ac <bread>
8000998c:	e7e831d4 	ubfx	r3, r4, #3, #9
80009990:	e3a02001 	mov	r2, #1
80009994:	e0803003 	add	r3, r0, r3
80009998:	e2044007 	and	r4, r4, #7
8000999c:	e5d31018 	ldrb	r1, [r3, #24]
800099a0:	e1a04412 	lsl	r4, r2, r4
800099a4:	e1110004 	tst	r1, r4
800099a8:	0a000007 	beq	800099cc <bfree+0x70>
800099ac:	e1c14004 	bic	r4, r1, r4
800099b0:	e1a05000 	mov	r5, r0
800099b4:	e5c34018 	strb	r4, [r3, #24]
800099b8:	eb00041c 	bl	8000aa30 <log_write>
800099bc:	e1a00005 	mov	r0, r5
800099c0:	ebfffb43 	bl	800086d4 <brelse>
800099c4:	e28dd014 	add	sp, sp, #20
800099c8:	e8bd8030 	pop	{r4, r5, pc}
800099cc:	e30e04f4 	movw	r0, #58612	; 0xe4f4
800099d0:	e3480000 	movt	r0, #32768	; 0x8000
800099d4:	ebfffcd1 	bl	80008d20 <panic>

800099d8 <balloc>:
800099d8:	e92d43f0 	push	{r4, r5, r6, r7, r8, r9, lr}
800099dc:	e24dd014 	sub	sp, sp, #20
800099e0:	e1a0100d 	mov	r1, sp
800099e4:	e1a06000 	mov	r6, r0
800099e8:	ebffffcf 	bl	8000992c <readsb>
800099ec:	e59d3000 	ldr	r3, [sp]
800099f0:	e3530000 	cmp	r3, #0
800099f4:	0a00001e 	beq	80009a74 <balloc+0x9c>
800099f8:	e3a09000 	mov	r9, #0
800099fc:	e3a08001 	mov	r8, #1
80009a00:	e59d1008 	ldr	r1, [sp, #8]
80009a04:	e1a00006 	mov	r0, r6
80009a08:	e1a04009 	mov	r4, r9
80009a0c:	e1a011a1 	lsr	r1, r1, #3
80009a10:	e2811003 	add	r1, r1, #3
80009a14:	e0811649 	add	r1, r1, r9, asr #12
80009a18:	ebfffae3 	bl	800085ac <bread>
80009a1c:	e1a05000 	mov	r5, r0
80009a20:	e3a02000 	mov	r2, #0
80009a24:	e59d0000 	ldr	r0, [sp]
80009a28:	ea000009 	b	80009a54 <balloc+0x7c>
80009a2c:	e085c1c2 	add	ip, r5, r2, asr #3
80009a30:	e2023007 	and	r3, r2, #7
80009a34:	e5dc1018 	ldrb	r1, [ip, #24]
80009a38:	e1a03318 	lsl	r3, r8, r3
80009a3c:	e0117003 	ands	r7, r1, r3
80009a40:	0a00000e 	beq	80009a80 <balloc+0xa8>
80009a44:	e2822001 	add	r2, r2, #1
80009a48:	e2844001 	add	r4, r4, #1
80009a4c:	e3520a01 	cmp	r2, #4096	; 0x1000
80009a50:	0a000001 	beq	80009a5c <balloc+0x84>
80009a54:	e1500004 	cmp	r0, r4
80009a58:	8afffff3 	bhi	80009a2c <balloc+0x54>
80009a5c:	e1a00005 	mov	r0, r5
80009a60:	e2899a01 	add	r9, r9, #4096	; 0x1000
80009a64:	ebfffb1a 	bl	800086d4 <brelse>
80009a68:	e59d3000 	ldr	r3, [sp]
80009a6c:	e1530009 	cmp	r3, r9
80009a70:	8affffe2 	bhi	80009a00 <balloc+0x28>
80009a74:	e30e0508 	movw	r0, #58632	; 0xe508
80009a78:	e3480000 	movt	r0, #32768	; 0x8000
80009a7c:	ebfffca7 	bl	80008d20 <panic>
80009a80:	e1813003 	orr	r3, r1, r3
80009a84:	e1a00005 	mov	r0, r5
80009a88:	e5cc3018 	strb	r3, [ip, #24]
80009a8c:	eb0003e7 	bl	8000aa30 <log_write>
80009a90:	e1a00005 	mov	r0, r5
80009a94:	ebfffb0e 	bl	800086d4 <brelse>
80009a98:	e1a01004 	mov	r1, r4
80009a9c:	e1a00006 	mov	r0, r6
80009aa0:	ebfffac1 	bl	800085ac <bread>
80009aa4:	e1a05000 	mov	r5, r0
80009aa8:	e1a01007 	mov	r1, r7
80009aac:	e3a02c02 	mov	r2, #512	; 0x200
80009ab0:	e2800018 	add	r0, r0, #24
80009ab4:	eb0008d1 	bl	8000be00 <memset>
80009ab8:	e1a00005 	mov	r0, r5
80009abc:	eb0003db 	bl	8000aa30 <log_write>
80009ac0:	e1a00005 	mov	r0, r5
80009ac4:	ebfffb02 	bl	800086d4 <brelse>
80009ac8:	e1a00004 	mov	r0, r4
80009acc:	e28dd014 	add	sp, sp, #20
80009ad0:	e8bd83f0 	pop	{r4, r5, r6, r7, r8, r9, pc}

80009ad4 <bmap>:
80009ad4:	e351000b 	cmp	r1, #11
80009ad8:	e92d41f0 	push	{r4, r5, r6, r7, r8, lr}
80009adc:	e1a06000 	mov	r6, r0
80009ae0:	8a000005 	bhi	80009afc <bmap+0x28>
80009ae4:	e0804101 	add	r4, r0, r1, lsl #2
80009ae8:	e594501c 	ldr	r5, [r4, #28]
80009aec:	e3550000 	cmp	r5, #0
80009af0:	0a000018 	beq	80009b58 <bmap+0x84>
80009af4:	e1a00005 	mov	r0, r5
80009af8:	e8bd81f0 	pop	{r4, r5, r6, r7, r8, pc}
80009afc:	e241400c 	sub	r4, r1, #12
80009b00:	e354007f 	cmp	r4, #127	; 0x7f
80009b04:	8a00001e 	bhi	80009b84 <bmap+0xb0>
80009b08:	e590104c 	ldr	r1, [r0, #76]	; 0x4c
80009b0c:	e5900000 	ldr	r0, [r0]
80009b10:	e3510000 	cmp	r1, #0
80009b14:	0a000015 	beq	80009b70 <bmap+0x9c>
80009b18:	ebfffaa3 	bl	800085ac <bread>
80009b1c:	e2808018 	add	r8, r0, #24
80009b20:	e1a07000 	mov	r7, r0
80009b24:	e7985104 	ldr	r5, [r8, r4, lsl #2]
80009b28:	e3550000 	cmp	r5, #0
80009b2c:	1a000005 	bne	80009b48 <bmap+0x74>
80009b30:	e5960000 	ldr	r0, [r6]
80009b34:	ebffffa7 	bl	800099d8 <balloc>
80009b38:	e1a05000 	mov	r5, r0
80009b3c:	e1a00007 	mov	r0, r7
80009b40:	e7885104 	str	r5, [r8, r4, lsl #2]
80009b44:	eb0003b9 	bl	8000aa30 <log_write>
80009b48:	e1a00007 	mov	r0, r7
80009b4c:	ebfffae0 	bl	800086d4 <brelse>
80009b50:	e1a00005 	mov	r0, r5
80009b54:	e8bd81f0 	pop	{r4, r5, r6, r7, r8, pc}
80009b58:	e5900000 	ldr	r0, [r0]
80009b5c:	ebffff9d 	bl	800099d8 <balloc>
80009b60:	e584001c 	str	r0, [r4, #28]
80009b64:	e1a05000 	mov	r5, r0
80009b68:	e1a00005 	mov	r0, r5
80009b6c:	e8bd81f0 	pop	{r4, r5, r6, r7, r8, pc}
80009b70:	ebffff98 	bl	800099d8 <balloc>
80009b74:	e1a01000 	mov	r1, r0
80009b78:	e586104c 	str	r1, [r6, #76]	; 0x4c
80009b7c:	e5960000 	ldr	r0, [r6]
80009b80:	eaffffe4 	b	80009b18 <bmap+0x44>
80009b84:	e30e0520 	movw	r0, #58656	; 0xe520
80009b88:	e3480000 	movt	r0, #32768	; 0x8000
80009b8c:	ebfffc63 	bl	80008d20 <panic>

80009b90 <iinit>:
80009b90:	e92d4010 	push	{r4, lr}
80009b94:	e3014be8 	movw	r4, #7144	; 0x1be8
80009b98:	e3484009 	movt	r4, #32777	; 0x8009
80009b9c:	e3a01000 	mov	r1, #0
80009ba0:	e1a00004 	mov	r0, r4
80009ba4:	e3002fd4 	movw	r2, #4052	; 0xfd4
80009ba8:	eb000894 	bl	8000be00 <memset>
80009bac:	e30e1534 	movw	r1, #58676	; 0xe534
80009bb0:	e1a00004 	mov	r0, r4
80009bb4:	e3481000 	movt	r1, #32768	; 0x8000
80009bb8:	e8bd4010 	pop	{r4, lr}
80009bbc:	ea000819 	b	8000bc28 <initlock>

80009bc0 <ialloc>:
80009bc0:	e92d41f0 	push	{r4, r5, r6, r7, r8, lr}
80009bc4:	e24dd010 	sub	sp, sp, #16
80009bc8:	e1a06001 	mov	r6, r1
80009bcc:	e1a0100d 	mov	r1, sp
80009bd0:	e1a05000 	mov	r5, r0
80009bd4:	ebffff54 	bl	8000992c <readsb>
80009bd8:	e59d3008 	ldr	r3, [sp, #8]
80009bdc:	e3530001 	cmp	r3, #1
80009be0:	9a00001f 	bls	80009c64 <ialloc+0xa4>
80009be4:	e3a04001 	mov	r4, #1
80009be8:	ea000004 	b	80009c00 <ialloc+0x40>
80009bec:	e2844001 	add	r4, r4, #1
80009bf0:	ebfffab7 	bl	800086d4 <brelse>
80009bf4:	e59d3008 	ldr	r3, [sp, #8]
80009bf8:	e1530004 	cmp	r3, r4
80009bfc:	9a000018 	bls	80009c64 <ialloc+0xa4>
80009c00:	e1a011a4 	lsr	r1, r4, #3
80009c04:	e1a00005 	mov	r0, r5
80009c08:	e2811002 	add	r1, r1, #2
80009c0c:	ebfffa66 	bl	800085ac <bread>
80009c10:	e2043007 	and	r3, r4, #7
80009c14:	e2802018 	add	r2, r0, #24
80009c18:	e1a07000 	mov	r7, r0
80009c1c:	e1a03303 	lsl	r3, r3, #6
80009c20:	e0828003 	add	r8, r2, r3
80009c24:	e19210f3 	ldrsh	r1, [r2, r3]
80009c28:	e3510000 	cmp	r1, #0
80009c2c:	1affffee 	bne	80009bec <ialloc+0x2c>
80009c30:	e3a02040 	mov	r2, #64	; 0x40
80009c34:	e1a00008 	mov	r0, r8
80009c38:	eb000870 	bl	8000be00 <memset>
80009c3c:	e1c860b0 	strh	r6, [r8]
80009c40:	e1a00007 	mov	r0, r7
80009c44:	eb000379 	bl	8000aa30 <log_write>
80009c48:	e1a00007 	mov	r0, r7
80009c4c:	ebfffaa0 	bl	800086d4 <brelse>
80009c50:	e1a01004 	mov	r1, r4
80009c54:	e1a00005 	mov	r0, r5
80009c58:	ebfffefd 	bl	80009854 <iget>
80009c5c:	e28dd010 	add	sp, sp, #16
80009c60:	e8bd81f0 	pop	{r4, r5, r6, r7, r8, pc}
80009c64:	e30e053c 	movw	r0, #58684	; 0xe53c
80009c68:	e3480000 	movt	r0, #32768	; 0x8000
80009c6c:	ebfffc2b 	bl	80008d20 <panic>

80009c70 <iupdate>:
80009c70:	e92d4070 	push	{r4, r5, r6, lr}
80009c74:	e1a04000 	mov	r4, r0
80009c78:	e1c000d0 	ldrd	r0, [r0]
80009c7c:	e1a011a1 	lsr	r1, r1, #3
80009c80:	e2811002 	add	r1, r1, #2
80009c84:	ebfffa48 	bl	800085ac <bread>
80009c88:	e1d4e1b0 	ldrh	lr, [r4, #16]
80009c8c:	e1a05000 	mov	r5, r0
80009c90:	e5940004 	ldr	r0, [r4, #4]
80009c94:	e2853018 	add	r3, r5, #24
80009c98:	e1d4c1b2 	ldrh	ip, [r4, #18]
80009c9c:	e284101c 	add	r1, r4, #28
80009ca0:	e2000007 	and	r0, r0, #7
80009ca4:	e3a02034 	mov	r2, #52	; 0x34
80009ca8:	e1a00300 	lsl	r0, r0, #6
80009cac:	e183e0b0 	strh	lr, [r3, r0]
80009cb0:	e0833000 	add	r3, r3, r0
80009cb4:	e1d401b4 	ldrh	r0, [r4, #20]
80009cb8:	e1c3c0b2 	strh	ip, [r3, #2]
80009cbc:	e1c300b4 	strh	r0, [r3, #4]
80009cc0:	e594c018 	ldr	ip, [r4, #24]
80009cc4:	e1d401b6 	ldrh	r0, [r4, #22]
80009cc8:	e583c008 	str	ip, [r3, #8]
80009ccc:	e1c300b6 	strh	r0, [r3, #6]
80009cd0:	e283000c 	add	r0, r3, #12
80009cd4:	eb000877 	bl	8000beb8 <memmove>
80009cd8:	e1a00005 	mov	r0, r5
80009cdc:	eb000353 	bl	8000aa30 <log_write>
80009ce0:	e1a00005 	mov	r0, r5
80009ce4:	e8bd4070 	pop	{r4, r5, r6, lr}
80009ce8:	eafffa79 	b	800086d4 <brelse>

80009cec <idup>:
80009cec:	e92d4070 	push	{r4, r5, r6, lr}
80009cf0:	e3014be8 	movw	r4, #7144	; 0x1be8
80009cf4:	e3484009 	movt	r4, #32777	; 0x8009
80009cf8:	e1a05000 	mov	r5, r0
80009cfc:	e1a00004 	mov	r0, r4
80009d00:	eb0007e6 	bl	8000bca0 <acquire>
80009d04:	e5953008 	ldr	r3, [r5, #8]
80009d08:	e1a00004 	mov	r0, r4
80009d0c:	e2833001 	add	r3, r3, #1
80009d10:	e5853008 	str	r3, [r5, #8]
80009d14:	eb000817 	bl	8000bd78 <release>
80009d18:	e1a00005 	mov	r0, r5
80009d1c:	e8bd8070 	pop	{r4, r5, r6, pc}

80009d20 <ilock>:
80009d20:	e92d4070 	push	{r4, r5, r6, lr}
80009d24:	e2504000 	subs	r4, r0, #0
80009d28:	0a00003b 	beq	80009e1c <ilock+0xfc>
80009d2c:	e5943008 	ldr	r3, [r4, #8]
80009d30:	e3530000 	cmp	r3, #0
80009d34:	da000038 	ble	80009e1c <ilock+0xfc>
80009d38:	e3010be8 	movw	r0, #7144	; 0x1be8
80009d3c:	e3480009 	movt	r0, #32777	; 0x8009
80009d40:	eb0007d6 	bl	8000bca0 <acquire>
80009d44:	e594300c 	ldr	r3, [r4, #12]
80009d48:	e3130001 	tst	r3, #1
80009d4c:	0a000007 	beq	80009d70 <ilock+0x50>
80009d50:	e3015be8 	movw	r5, #7144	; 0x1be8
80009d54:	e3485009 	movt	r5, #32777	; 0x8009
80009d58:	e1a01005 	mov	r1, r5
80009d5c:	e1a00004 	mov	r0, r4
80009d60:	eb000710 	bl	8000b9a8 <sleep>
80009d64:	e594300c 	ldr	r3, [r4, #12]
80009d68:	e3130001 	tst	r3, #1
80009d6c:	1afffff9 	bne	80009d58 <ilock+0x38>
80009d70:	e3833001 	orr	r3, r3, #1
80009d74:	e3010be8 	movw	r0, #7144	; 0x1be8
80009d78:	e584300c 	str	r3, [r4, #12]
80009d7c:	e3480009 	movt	r0, #32777	; 0x8009
80009d80:	eb0007fc 	bl	8000bd78 <release>
80009d84:	e594300c 	ldr	r3, [r4, #12]
80009d88:	e3130002 	tst	r3, #2
80009d8c:	18bd8070 	popne	{r4, r5, r6, pc}
80009d90:	e1c400d0 	ldrd	r0, [r4]
80009d94:	e1a011a1 	lsr	r1, r1, #3
80009d98:	e2811002 	add	r1, r1, #2
80009d9c:	ebfffa02 	bl	800085ac <bread>
80009da0:	e5943004 	ldr	r3, [r4, #4]
80009da4:	e1a05000 	mov	r5, r0
80009da8:	e2851018 	add	r1, r5, #24
80009dac:	e3a02034 	mov	r2, #52	; 0x34
80009db0:	e2033007 	and	r3, r3, #7
80009db4:	e284001c 	add	r0, r4, #28
80009db8:	e1a03303 	lsl	r3, r3, #6
80009dbc:	e081c003 	add	ip, r1, r3
80009dc0:	e191e0b3 	ldrh	lr, [r1, r3]
80009dc4:	e28c100c 	add	r1, ip, #12
80009dc8:	e1dc30b2 	ldrh	r3, [ip, #2]
80009dcc:	e1dc60b4 	ldrh	r6, [ip, #4]
80009dd0:	e1c4e1b0 	strh	lr, [r4, #16]
80009dd4:	e1c431b2 	strh	r3, [r4, #18]
80009dd8:	e1dce0b6 	ldrh	lr, [ip, #6]
80009ddc:	e59c3008 	ldr	r3, [ip, #8]
80009de0:	e1c4e1b6 	strh	lr, [r4, #22]
80009de4:	e5843018 	str	r3, [r4, #24]
80009de8:	e1c461b4 	strh	r6, [r4, #20]
80009dec:	eb000831 	bl	8000beb8 <memmove>
80009df0:	e1a00005 	mov	r0, r5
80009df4:	ebfffa36 	bl	800086d4 <brelse>
80009df8:	e1d421f0 	ldrsh	r2, [r4, #16]
80009dfc:	e594300c 	ldr	r3, [r4, #12]
80009e00:	e3520000 	cmp	r2, #0
80009e04:	e3833002 	orr	r3, r3, #2
80009e08:	e584300c 	str	r3, [r4, #12]
80009e0c:	18bd8070 	popne	{r4, r5, r6, pc}
80009e10:	e30e0558 	movw	r0, #58712	; 0xe558
80009e14:	e3480000 	movt	r0, #32768	; 0x8000
80009e18:	ebfffbc0 	bl	80008d20 <panic>
80009e1c:	e30e0550 	movw	r0, #58704	; 0xe550
80009e20:	e3480000 	movt	r0, #32768	; 0x8000
80009e24:	ebfffbbd 	bl	80008d20 <panic>

80009e28 <iunlock>:
80009e28:	e92d4010 	push	{r4, lr}
80009e2c:	e2504000 	subs	r4, r0, #0
80009e30:	0a000011 	beq	80009e7c <iunlock+0x54>
80009e34:	e594300c 	ldr	r3, [r4, #12]
80009e38:	e3130001 	tst	r3, #1
80009e3c:	0a00000e 	beq	80009e7c <iunlock+0x54>
80009e40:	e5943008 	ldr	r3, [r4, #8]
80009e44:	e3530000 	cmp	r3, #0
80009e48:	da00000b 	ble	80009e7c <iunlock+0x54>
80009e4c:	e3010be8 	movw	r0, #7144	; 0x1be8
80009e50:	e3480009 	movt	r0, #32777	; 0x8009
80009e54:	eb000791 	bl	8000bca0 <acquire>
80009e58:	e594300c 	ldr	r3, [r4, #12]
80009e5c:	e1a00004 	mov	r0, r4
80009e60:	e3c33001 	bic	r3, r3, #1
80009e64:	e584300c 	str	r3, [r4, #12]
80009e68:	eb000731 	bl	8000bb34 <wakeup>
80009e6c:	e3010be8 	movw	r0, #7144	; 0x1be8
80009e70:	e3480009 	movt	r0, #32777	; 0x8009
80009e74:	e8bd4010 	pop	{r4, lr}
80009e78:	ea0007be 	b	8000bd78 <release>
80009e7c:	e30e0568 	movw	r0, #58728	; 0xe568
80009e80:	e3480000 	movt	r0, #32768	; 0x8000
80009e84:	ebfffba5 	bl	80008d20 <panic>

80009e88 <iput>:
80009e88:	e92d41f0 	push	{r4, r5, r6, r7, r8, lr}
80009e8c:	e1a05000 	mov	r5, r0
80009e90:	e3010be8 	movw	r0, #7144	; 0x1be8
80009e94:	e3480009 	movt	r0, #32777	; 0x8009
80009e98:	eb000780 	bl	8000bca0 <acquire>
80009e9c:	e5953008 	ldr	r3, [r5, #8]
80009ea0:	e3530001 	cmp	r3, #1
80009ea4:	1a00002a 	bne	80009f54 <iput+0xcc>
80009ea8:	e595200c 	ldr	r2, [r5, #12]
80009eac:	e3120002 	tst	r2, #2
80009eb0:	0a000027 	beq	80009f54 <iput+0xcc>
80009eb4:	e1d511f6 	ldrsh	r1, [r5, #22]
80009eb8:	e3510000 	cmp	r1, #0
80009ebc:	1a000024 	bne	80009f54 <iput+0xcc>
80009ec0:	e2127001 	ands	r7, r2, #1
80009ec4:	1a00003e 	bne	80009fc4 <iput+0x13c>
80009ec8:	e3822001 	orr	r2, r2, #1
80009ecc:	e3010be8 	movw	r0, #7144	; 0x1be8
80009ed0:	e585200c 	str	r2, [r5, #12]
80009ed4:	e2854018 	add	r4, r5, #24
80009ed8:	e3480009 	movt	r0, #32777	; 0x8009
80009edc:	e2856048 	add	r6, r5, #72	; 0x48
80009ee0:	eb0007a4 	bl	8000bd78 <release>
80009ee4:	ea000001 	b	80009ef0 <iput+0x68>
80009ee8:	e1540006 	cmp	r4, r6
80009eec:	0a000007 	beq	80009f10 <iput+0x88>
80009ef0:	e5b41004 	ldr	r1, [r4, #4]!
80009ef4:	e3510000 	cmp	r1, #0
80009ef8:	0afffffa 	beq	80009ee8 <iput+0x60>
80009efc:	e5950000 	ldr	r0, [r5]
80009f00:	ebfffe95 	bl	8000995c <bfree>
80009f04:	e1540006 	cmp	r4, r6
80009f08:	e5847000 	str	r7, [r4]
80009f0c:	1afffff7 	bne	80009ef0 <iput+0x68>
80009f10:	e595104c 	ldr	r1, [r5, #76]	; 0x4c
80009f14:	e3510000 	cmp	r1, #0
80009f18:	1a000013 	bne	80009f6c <iput+0xe4>
80009f1c:	e3a04000 	mov	r4, #0
80009f20:	e1a00005 	mov	r0, r5
80009f24:	e5854018 	str	r4, [r5, #24]
80009f28:	ebffff50 	bl	80009c70 <iupdate>
80009f2c:	e1c541b0 	strh	r4, [r5, #16]
80009f30:	e1a00005 	mov	r0, r5
80009f34:	ebffff4d 	bl	80009c70 <iupdate>
80009f38:	e3010be8 	movw	r0, #7144	; 0x1be8
80009f3c:	e3480009 	movt	r0, #32777	; 0x8009
80009f40:	eb000756 	bl	8000bca0 <acquire>
80009f44:	e585400c 	str	r4, [r5, #12]
80009f48:	e1a00005 	mov	r0, r5
80009f4c:	eb0006f8 	bl	8000bb34 <wakeup>
80009f50:	e5953008 	ldr	r3, [r5, #8]
80009f54:	e2433001 	sub	r3, r3, #1
80009f58:	e3010be8 	movw	r0, #7144	; 0x1be8
80009f5c:	e5853008 	str	r3, [r5, #8]
80009f60:	e3480009 	movt	r0, #32777	; 0x8009
80009f64:	e8bd41f0 	pop	{r4, r5, r6, r7, r8, lr}
80009f68:	ea000782 	b	8000bd78 <release>
80009f6c:	e5950000 	ldr	r0, [r5]
80009f70:	ebfff98d 	bl	800085ac <bread>
80009f74:	e1a07000 	mov	r7, r0
80009f78:	e2804014 	add	r4, r0, #20
80009f7c:	e2806f85 	add	r6, r0, #532	; 0x214
80009f80:	ea000001 	b	80009f8c <iput+0x104>
80009f84:	e1560004 	cmp	r6, r4
80009f88:	0a000005 	beq	80009fa4 <iput+0x11c>
80009f8c:	e5b41004 	ldr	r1, [r4, #4]!
80009f90:	e3510000 	cmp	r1, #0
80009f94:	0afffffa 	beq	80009f84 <iput+0xfc>
80009f98:	e5950000 	ldr	r0, [r5]
80009f9c:	ebfffe6e 	bl	8000995c <bfree>
80009fa0:	eafffff7 	b	80009f84 <iput+0xfc>
80009fa4:	e1a00007 	mov	r0, r7
80009fa8:	ebfff9c9 	bl	800086d4 <brelse>
80009fac:	e595104c 	ldr	r1, [r5, #76]	; 0x4c
80009fb0:	e5950000 	ldr	r0, [r5]
80009fb4:	ebfffe68 	bl	8000995c <bfree>
80009fb8:	e3a03000 	mov	r3, #0
80009fbc:	e585304c 	str	r3, [r5, #76]	; 0x4c
80009fc0:	eaffffd5 	b	80009f1c <iput+0x94>
80009fc4:	e30e0570 	movw	r0, #58736	; 0xe570
80009fc8:	e3480000 	movt	r0, #32768	; 0x8000
80009fcc:	ebfffb53 	bl	80008d20 <panic>

80009fd0 <iunlockput>:
80009fd0:	e92d4010 	push	{r4, lr}
80009fd4:	e1a04000 	mov	r4, r0
80009fd8:	ebffff92 	bl	80009e28 <iunlock>
80009fdc:	e1a00004 	mov	r0, r4
80009fe0:	e8bd4010 	pop	{r4, lr}
80009fe4:	eaffffa7 	b	80009e88 <iput>

80009fe8 <stati>:
80009fe8:	e1d0c1b0 	ldrh	ip, [r0, #16]
80009fec:	e1d021b6 	ldrh	r2, [r0, #22]
80009ff0:	e5903018 	ldr	r3, [r0, #24]
80009ff4:	e92d4010 	push	{r4, lr}
80009ff8:	e8904010 	ldm	r0, {r4, lr}
80009ffc:	e1c1c0b0 	strh	ip, [r1]
8000a000:	e9814010 	stmib	r1, {r4, lr}
8000a004:	e1c120bc 	strh	r2, [r1, #12]
8000a008:	e5813010 	str	r3, [r1, #16]
8000a00c:	e8bd8010 	pop	{r4, pc}

8000a010 <readi>:
8000a010:	e92d47f0 	push	{r4, r5, r6, r7, r8, r9, sl, lr}
8000a014:	e1a05002 	mov	r5, r2
8000a018:	e1d021f0 	ldrsh	r2, [r0, #16]
8000a01c:	e1a0a000 	mov	sl, r0
8000a020:	e1a07003 	mov	r7, r3
8000a024:	e3520003 	cmp	r2, #3
8000a028:	0a000025 	beq	8000a0c4 <readi+0xb4>
8000a02c:	e5903018 	ldr	r3, [r0, #24]
8000a030:	e1550003 	cmp	r5, r3
8000a034:	8a00002e 	bhi	8000a0f4 <readi+0xe4>
8000a038:	e0952007 	adds	r2, r5, r7
8000a03c:	2a00002c 	bcs	8000a0f4 <readi+0xe4>
8000a040:	e1530002 	cmp	r3, r2
8000a044:	e1a08001 	mov	r8, r1
8000a048:	30437005 	subcc	r7, r3, r5
8000a04c:	e3570000 	cmp	r7, #0
8000a050:	0a000019 	beq	8000a0bc <readi+0xac>
8000a054:	e3a06000 	mov	r6, #0
8000a058:	e59a4000 	ldr	r4, [sl]
8000a05c:	e1a0000a 	mov	r0, sl
8000a060:	e1a014a5 	lsr	r1, r5, #9
8000a064:	ebfffe9a 	bl	80009ad4 <bmap>
8000a068:	e1a01000 	mov	r1, r0
8000a06c:	e1a00004 	mov	r0, r4
8000a070:	ebfff94d 	bl	800085ac <bread>
8000a074:	e7e82055 	ubfx	r2, r5, #0, #9
8000a078:	e1a09000 	mov	r9, r0
8000a07c:	e0473006 	sub	r3, r7, r6
8000a080:	e2624c02 	rsb	r4, r2, #512	; 0x200
8000a084:	e1540003 	cmp	r4, r3
8000a088:	e2891018 	add	r1, r9, #24
8000a08c:	e0811002 	add	r1, r1, r2
8000a090:	21a04003 	movcs	r4, r3
8000a094:	e0866004 	add	r6, r6, r4
8000a098:	e1a00008 	mov	r0, r8
8000a09c:	e0855004 	add	r5, r5, r4
8000a0a0:	e1a02004 	mov	r2, r4
8000a0a4:	e0888004 	add	r8, r8, r4
8000a0a8:	eb000782 	bl	8000beb8 <memmove>
8000a0ac:	e1a00009 	mov	r0, r9
8000a0b0:	ebfff987 	bl	800086d4 <brelse>
8000a0b4:	e1570006 	cmp	r7, r6
8000a0b8:	8affffe6 	bhi	8000a058 <readi+0x48>
8000a0bc:	e1a00007 	mov	r0, r7
8000a0c0:	e8bd87f0 	pop	{r4, r5, r6, r7, r8, r9, sl, pc}
8000a0c4:	e1d021f2 	ldrsh	r2, [r0, #18]
8000a0c8:	e6ff3072 	uxth	r3, r2
8000a0cc:	e3530009 	cmp	r3, #9
8000a0d0:	8a000007 	bhi	8000a0f4 <readi+0xe4>
8000a0d4:	e3013b98 	movw	r3, #7064	; 0x1b98
8000a0d8:	e3483009 	movt	r3, #32777	; 0x8009
8000a0dc:	e7933182 	ldr	r3, [r3, r2, lsl #3]
8000a0e0:	e3530000 	cmp	r3, #0
8000a0e4:	0a000002 	beq	8000a0f4 <readi+0xe4>
8000a0e8:	e1a02007 	mov	r2, r7
8000a0ec:	e8bd47f0 	pop	{r4, r5, r6, r7, r8, r9, sl, lr}
8000a0f0:	e12fff13 	bx	r3
8000a0f4:	e3e00000 	mvn	r0, #0
8000a0f8:	e8bd87f0 	pop	{r4, r5, r6, r7, r8, r9, sl, pc}

8000a0fc <writei>:
8000a0fc:	e92d47f0 	push	{r4, r5, r6, r7, r8, r9, sl, lr}
8000a100:	e1a05002 	mov	r5, r2
8000a104:	e1d021f0 	ldrsh	r2, [r0, #16]
8000a108:	e1a0a000 	mov	sl, r0
8000a10c:	e1a08003 	mov	r8, r3
8000a110:	e3520003 	cmp	r2, #3
8000a114:	0a00002c 	beq	8000a1cc <writei+0xd0>
8000a118:	e5903018 	ldr	r3, [r0, #24]
8000a11c:	e1530005 	cmp	r3, r5
8000a120:	3a00003b 	bcc	8000a214 <writei+0x118>
8000a124:	e0953008 	adds	r3, r5, r8
8000a128:	23a06001 	movcs	r6, #1
8000a12c:	33a06000 	movcc	r6, #0
8000a130:	e3530b46 	cmp	r3, #71680	; 0x11800
8000a134:	83866001 	orrhi	r6, r6, #1
8000a138:	e3560000 	cmp	r6, #0
8000a13c:	1a000034 	bne	8000a214 <writei+0x118>
8000a140:	e3580000 	cmp	r8, #0
8000a144:	e1a09001 	mov	r9, r1
8000a148:	0a00001d 	beq	8000a1c4 <writei+0xc8>
8000a14c:	e59a4000 	ldr	r4, [sl]
8000a150:	e1a0000a 	mov	r0, sl
8000a154:	e1a014a5 	lsr	r1, r5, #9
8000a158:	ebfffe5d 	bl	80009ad4 <bmap>
8000a15c:	e1a01000 	mov	r1, r0
8000a160:	e1a00004 	mov	r0, r4
8000a164:	ebfff910 	bl	800085ac <bread>
8000a168:	e7e82055 	ubfx	r2, r5, #0, #9
8000a16c:	e1a07000 	mov	r7, r0
8000a170:	e0483006 	sub	r3, r8, r6
8000a174:	e2624c02 	rsb	r4, r2, #512	; 0x200
8000a178:	e1540003 	cmp	r4, r3
8000a17c:	e2800018 	add	r0, r0, #24
8000a180:	e0800002 	add	r0, r0, r2
8000a184:	21a04003 	movcs	r4, r3
8000a188:	e0866004 	add	r6, r6, r4
8000a18c:	e1a01009 	mov	r1, r9
8000a190:	e0855004 	add	r5, r5, r4
8000a194:	e1a02004 	mov	r2, r4
8000a198:	e0899004 	add	r9, r9, r4
8000a19c:	eb000745 	bl	8000beb8 <memmove>
8000a1a0:	e1a00007 	mov	r0, r7
8000a1a4:	eb000221 	bl	8000aa30 <log_write>
8000a1a8:	e1a00007 	mov	r0, r7
8000a1ac:	ebfff948 	bl	800086d4 <brelse>
8000a1b0:	e1580006 	cmp	r8, r6
8000a1b4:	8affffe4 	bhi	8000a14c <writei+0x50>
8000a1b8:	e59a3018 	ldr	r3, [sl, #24]
8000a1bc:	e1550003 	cmp	r5, r3
8000a1c0:	8a00000e 	bhi	8000a200 <writei+0x104>
8000a1c4:	e1a00008 	mov	r0, r8
8000a1c8:	e8bd87f0 	pop	{r4, r5, r6, r7, r8, r9, sl, pc}
8000a1cc:	e1d021f2 	ldrsh	r2, [r0, #18]
8000a1d0:	e6ff3072 	uxth	r3, r2
8000a1d4:	e3530009 	cmp	r3, #9
8000a1d8:	8a00000d 	bhi	8000a214 <writei+0x118>
8000a1dc:	e3013b98 	movw	r3, #7064	; 0x1b98
8000a1e0:	e3483009 	movt	r3, #32777	; 0x8009
8000a1e4:	e0833182 	add	r3, r3, r2, lsl #3
8000a1e8:	e5933004 	ldr	r3, [r3, #4]
8000a1ec:	e3530000 	cmp	r3, #0
8000a1f0:	0a000007 	beq	8000a214 <writei+0x118>
8000a1f4:	e1a02008 	mov	r2, r8
8000a1f8:	e8bd47f0 	pop	{r4, r5, r6, r7, r8, r9, sl, lr}
8000a1fc:	e12fff13 	bx	r3
8000a200:	e58a5018 	str	r5, [sl, #24]
8000a204:	e1a0000a 	mov	r0, sl
8000a208:	ebfffe98 	bl	80009c70 <iupdate>
8000a20c:	e1a00008 	mov	r0, r8
8000a210:	e8bd87f0 	pop	{r4, r5, r6, r7, r8, r9, sl, pc}
8000a214:	e3e00000 	mvn	r0, #0
8000a218:	e8bd87f0 	pop	{r4, r5, r6, r7, r8, r9, sl, pc}

8000a21c <namecmp>:
8000a21c:	e3a0200e 	mov	r2, #14
8000a220:	ea00073c 	b	8000bf18 <strncmp>

8000a224 <dirlookup>:
8000a224:	e1d031f0 	ldrsh	r3, [r0, #16]
8000a228:	e92d40f0 	push	{r4, r5, r6, r7, lr}
8000a22c:	e3530001 	cmp	r3, #1
8000a230:	e24dd014 	sub	sp, sp, #20
8000a234:	1a000027 	bne	8000a2d8 <dirlookup+0xb4>
8000a238:	e5903018 	ldr	r3, [r0, #24]
8000a23c:	e1a05000 	mov	r5, r0
8000a240:	e3530000 	cmp	r3, #0
8000a244:	11a06001 	movne	r6, r1
8000a248:	11a07002 	movne	r7, r2
8000a24c:	13a04000 	movne	r4, #0
8000a250:	0a000013 	beq	8000a2a4 <dirlookup+0x80>
8000a254:	e3a03010 	mov	r3, #16
8000a258:	e1a02004 	mov	r2, r4
8000a25c:	e1a0100d 	mov	r1, sp
8000a260:	e1a00005 	mov	r0, r5
8000a264:	ebffff69 	bl	8000a010 <readi>
8000a268:	e3500010 	cmp	r0, #16
8000a26c:	1a000016 	bne	8000a2cc <dirlookup+0xa8>
8000a270:	e1dd30b0 	ldrh	r3, [sp]
8000a274:	e3530000 	cmp	r3, #0
8000a278:	0a000005 	beq	8000a294 <dirlookup+0x70>
8000a27c:	e3a0200e 	mov	r2, #14
8000a280:	e28d1002 	add	r1, sp, #2
8000a284:	e1a00006 	mov	r0, r6
8000a288:	eb000722 	bl	8000bf18 <strncmp>
8000a28c:	e3500000 	cmp	r0, #0
8000a290:	0a000006 	beq	8000a2b0 <dirlookup+0x8c>
8000a294:	e5953018 	ldr	r3, [r5, #24]
8000a298:	e2844010 	add	r4, r4, #16
8000a29c:	e1540003 	cmp	r4, r3
8000a2a0:	3affffeb 	bcc	8000a254 <dirlookup+0x30>
8000a2a4:	e3a00000 	mov	r0, #0
8000a2a8:	e28dd014 	add	sp, sp, #20
8000a2ac:	e8bd80f0 	pop	{r4, r5, r6, r7, pc}
8000a2b0:	e1dd10b0 	ldrh	r1, [sp]
8000a2b4:	e3570000 	cmp	r7, #0
8000a2b8:	15874000 	strne	r4, [r7]
8000a2bc:	e5950000 	ldr	r0, [r5]
8000a2c0:	ebfffd63 	bl	80009854 <iget>
8000a2c4:	e28dd014 	add	sp, sp, #20
8000a2c8:	e8bd80f0 	pop	{r4, r5, r6, r7, pc}
8000a2cc:	e30e0590 	movw	r0, #58768	; 0xe590
8000a2d0:	e3480000 	movt	r0, #32768	; 0x8000
8000a2d4:	ebfffa91 	bl	80008d20 <panic>
8000a2d8:	e30e057c 	movw	r0, #58748	; 0xe57c
8000a2dc:	e3480000 	movt	r0, #32768	; 0x8000
8000a2e0:	ebfffa8e 	bl	80008d20 <panic>

8000a2e4 <namex>:
8000a2e4:	e92d47f0 	push	{r4, r5, r6, r7, r8, r9, sl, lr}
8000a2e8:	e1a04000 	mov	r4, r0
8000a2ec:	e5d03000 	ldrb	r3, [r0]
8000a2f0:	e1a08001 	mov	r8, r1
8000a2f4:	e1a07002 	mov	r7, r2
8000a2f8:	e353002f 	cmp	r3, #47	; 0x2f
8000a2fc:	0a000051 	beq	8000a448 <namex+0x164>
8000a300:	e3013124 	movw	r3, #4388	; 0x1124
8000a304:	e3010be8 	movw	r0, #7144	; 0x1be8
8000a308:	e3483009 	movt	r3, #32777	; 0x8009
8000a30c:	e3480009 	movt	r0, #32777	; 0x8009
8000a310:	e5933018 	ldr	r3, [r3, #24]
8000a314:	e5936068 	ldr	r6, [r3, #104]	; 0x68
8000a318:	eb000660 	bl	8000bca0 <acquire>
8000a31c:	e3010be8 	movw	r0, #7144	; 0x1be8
8000a320:	e5963008 	ldr	r3, [r6, #8]
8000a324:	e3480009 	movt	r0, #32777	; 0x8009
8000a328:	e2833001 	add	r3, r3, #1
8000a32c:	e5863008 	str	r3, [r6, #8]
8000a330:	eb000690 	bl	8000bd78 <release>
8000a334:	e3a09000 	mov	r9, #0
8000a338:	e5d43000 	ldrb	r3, [r4]
8000a33c:	e353002f 	cmp	r3, #47	; 0x2f
8000a340:	1a000002 	bne	8000a350 <namex+0x6c>
8000a344:	e5f43001 	ldrb	r3, [r4, #1]!
8000a348:	e353002f 	cmp	r3, #47	; 0x2f
8000a34c:	0afffffc 	beq	8000a344 <namex+0x60>
8000a350:	e3530000 	cmp	r3, #0
8000a354:	0a000037 	beq	8000a438 <namex+0x154>
8000a358:	e5d43000 	ldrb	r3, [r4]
8000a35c:	e353002f 	cmp	r3, #47	; 0x2f
8000a360:	13530000 	cmpne	r3, #0
8000a364:	03a03000 	moveq	r3, #0
8000a368:	13a03001 	movne	r3, #1
8000a36c:	01a0a003 	moveq	sl, r3
8000a370:	01a05004 	moveq	r5, r4
8000a374:	0a000028 	beq	8000a41c <namex+0x138>
8000a378:	e1a05004 	mov	r5, r4
8000a37c:	e5f53001 	ldrb	r3, [r5, #1]!
8000a380:	e353002f 	cmp	r3, #47	; 0x2f
8000a384:	13530000 	cmpne	r3, #0
8000a388:	1afffffb 	bne	8000a37c <namex+0x98>
8000a38c:	e045a004 	sub	sl, r5, r4
8000a390:	e35a000d 	cmp	sl, #13
8000a394:	da000020 	ble	8000a41c <namex+0x138>
8000a398:	e1a01004 	mov	r1, r4
8000a39c:	e3a0200e 	mov	r2, #14
8000a3a0:	e1a00007 	mov	r0, r7
8000a3a4:	e1a04005 	mov	r4, r5
8000a3a8:	eb0006c2 	bl	8000beb8 <memmove>
8000a3ac:	e5d53000 	ldrb	r3, [r5]
8000a3b0:	e353002f 	cmp	r3, #47	; 0x2f
8000a3b4:	1a000002 	bne	8000a3c4 <namex+0xe0>
8000a3b8:	e5f43001 	ldrb	r3, [r4, #1]!
8000a3bc:	e353002f 	cmp	r3, #47	; 0x2f
8000a3c0:	0afffffc 	beq	8000a3b8 <namex+0xd4>
8000a3c4:	e1a00006 	mov	r0, r6
8000a3c8:	ebfffe54 	bl	80009d20 <ilock>
8000a3cc:	e1d631f0 	ldrsh	r3, [r6, #16]
8000a3d0:	e3530001 	cmp	r3, #1
8000a3d4:	1a000020 	bne	8000a45c <namex+0x178>
8000a3d8:	e3580000 	cmp	r8, #0
8000a3dc:	0a000002 	beq	8000a3ec <namex+0x108>
8000a3e0:	e5d43000 	ldrb	r3, [r4]
8000a3e4:	e3530000 	cmp	r3, #0
8000a3e8:	0a000028 	beq	8000a490 <namex+0x1ac>
8000a3ec:	e3a02000 	mov	r2, #0
8000a3f0:	e1a01007 	mov	r1, r7
8000a3f4:	e1a00006 	mov	r0, r6
8000a3f8:	ebffff89 	bl	8000a224 <dirlookup>
8000a3fc:	e2505000 	subs	r5, r0, #0
8000a400:	e1a00006 	mov	r0, r6
8000a404:	0a00001b 	beq	8000a478 <namex+0x194>
8000a408:	ebfffe86 	bl	80009e28 <iunlock>
8000a40c:	e1a00006 	mov	r0, r6
8000a410:	e1a06005 	mov	r6, r5
8000a414:	ebfffe9b 	bl	80009e88 <iput>
8000a418:	eaffffc6 	b	8000a338 <namex+0x54>
8000a41c:	e1a01004 	mov	r1, r4
8000a420:	e1a0200a 	mov	r2, sl
8000a424:	e1a00007 	mov	r0, r7
8000a428:	e1a04005 	mov	r4, r5
8000a42c:	eb0006a1 	bl	8000beb8 <memmove>
8000a430:	e7c7900a 	strb	r9, [r7, sl]
8000a434:	eaffffdc 	b	8000a3ac <namex+0xc8>
8000a438:	e3580000 	cmp	r8, #0
8000a43c:	1a000017 	bne	8000a4a0 <namex+0x1bc>
8000a440:	e1a00006 	mov	r0, r6
8000a444:	e8bd87f0 	pop	{r4, r5, r6, r7, r8, r9, sl, pc}
8000a448:	e3a01001 	mov	r1, #1
8000a44c:	e1a00001 	mov	r0, r1
8000a450:	ebfffcff 	bl	80009854 <iget>
8000a454:	e1a06000 	mov	r6, r0
8000a458:	eaffffb5 	b	8000a334 <namex+0x50>
8000a45c:	e1a00006 	mov	r0, r6
8000a460:	ebfffe70 	bl	80009e28 <iunlock>
8000a464:	e1a00006 	mov	r0, r6
8000a468:	e3a06000 	mov	r6, #0
8000a46c:	ebfffe85 	bl	80009e88 <iput>
8000a470:	e1a00006 	mov	r0, r6
8000a474:	e8bd87f0 	pop	{r4, r5, r6, r7, r8, r9, sl, pc}
8000a478:	ebfffe6a 	bl	80009e28 <iunlock>
8000a47c:	e1a00006 	mov	r0, r6
8000a480:	e1a06005 	mov	r6, r5
8000a484:	ebfffe7f 	bl	80009e88 <iput>
8000a488:	e1a00006 	mov	r0, r6
8000a48c:	e8bd87f0 	pop	{r4, r5, r6, r7, r8, r9, sl, pc}
8000a490:	e1a00006 	mov	r0, r6
8000a494:	ebfffe63 	bl	80009e28 <iunlock>
8000a498:	e1a00006 	mov	r0, r6
8000a49c:	e8bd87f0 	pop	{r4, r5, r6, r7, r8, r9, sl, pc}
8000a4a0:	e1a00006 	mov	r0, r6
8000a4a4:	e1a06003 	mov	r6, r3
8000a4a8:	ebfffe76 	bl	80009e88 <iput>
8000a4ac:	eaffffe3 	b	8000a440 <namex+0x15c>

8000a4b0 <dirlink>:
8000a4b0:	e92d41f0 	push	{r4, r5, r6, r7, r8, lr}
8000a4b4:	e1a07002 	mov	r7, r2
8000a4b8:	e24dd010 	sub	sp, sp, #16
8000a4bc:	e3a02000 	mov	r2, #0
8000a4c0:	e1a05000 	mov	r5, r0
8000a4c4:	e1a08001 	mov	r8, r1
8000a4c8:	ebffff55 	bl	8000a224 <dirlookup>
8000a4cc:	e2503000 	subs	r3, r0, #0
8000a4d0:	1a000023 	bne	8000a564 <dirlink+0xb4>
8000a4d4:	e5954018 	ldr	r4, [r5, #24]
8000a4d8:	e3540000 	cmp	r4, #0
8000a4dc:	01a0600d 	moveq	r6, sp
8000a4e0:	0a000010 	beq	8000a528 <dirlink+0x78>
8000a4e4:	e1a04003 	mov	r4, r3
8000a4e8:	e1a0600d 	mov	r6, sp
8000a4ec:	ea000003 	b	8000a500 <dirlink+0x50>
8000a4f0:	e5953018 	ldr	r3, [r5, #24]
8000a4f4:	e2844010 	add	r4, r4, #16
8000a4f8:	e1540003 	cmp	r4, r3
8000a4fc:	2a000009 	bcs	8000a528 <dirlink+0x78>
8000a500:	e3a03010 	mov	r3, #16
8000a504:	e1a02004 	mov	r2, r4
8000a508:	e1a01006 	mov	r1, r6
8000a50c:	e1a00005 	mov	r0, r5
8000a510:	ebfffebe 	bl	8000a010 <readi>
8000a514:	e3500010 	cmp	r0, #16
8000a518:	1a000014 	bne	8000a570 <dirlink+0xc0>
8000a51c:	e1dd30b0 	ldrh	r3, [sp]
8000a520:	e3530000 	cmp	r3, #0
8000a524:	1afffff1 	bne	8000a4f0 <dirlink+0x40>
8000a528:	e1a01008 	mov	r1, r8
8000a52c:	e3a0200e 	mov	r2, #14
8000a530:	e28d0002 	add	r0, sp, #2
8000a534:	eb00068f 	bl	8000bf78 <strncpy>
8000a538:	e1cd70b0 	strh	r7, [sp]
8000a53c:	e1a02004 	mov	r2, r4
8000a540:	e1a01006 	mov	r1, r6
8000a544:	e1a00005 	mov	r0, r5
8000a548:	e3a03010 	mov	r3, #16
8000a54c:	ebfffeea 	bl	8000a0fc <writei>
8000a550:	e3500010 	cmp	r0, #16
8000a554:	03a00000 	moveq	r0, #0
8000a558:	1a000007 	bne	8000a57c <dirlink+0xcc>
8000a55c:	e28dd010 	add	sp, sp, #16
8000a560:	e8bd81f0 	pop	{r4, r5, r6, r7, r8, pc}
8000a564:	ebfffe47 	bl	80009e88 <iput>
8000a568:	e3e00000 	mvn	r0, #0
8000a56c:	eafffffa 	b	8000a55c <dirlink+0xac>
8000a570:	e30e0590 	movw	r0, #58768	; 0xe590
8000a574:	e3480000 	movt	r0, #32768	; 0x8000
8000a578:	ebfff9e8 	bl	80008d20 <panic>
8000a57c:	e30e0948 	movw	r0, #59720	; 0xe948
8000a580:	e3480000 	movt	r0, #32768	; 0x8000
8000a584:	ebfff9e5 	bl	80008d20 <panic>

8000a588 <namei>:
8000a588:	e52de004 	push	{lr}		; (str lr, [sp, #-4]!)
8000a58c:	e24dd014 	sub	sp, sp, #20
8000a590:	e1a0200d 	mov	r2, sp
8000a594:	e3a01000 	mov	r1, #0
8000a598:	ebffff51 	bl	8000a2e4 <namex>
8000a59c:	e28dd014 	add	sp, sp, #20
8000a5a0:	e49df004 	pop	{pc}		; (ldr pc, [sp], #4)

8000a5a4 <nameiparent>:
8000a5a4:	e1a02001 	mov	r2, r1
8000a5a8:	e3a01001 	mov	r1, #1
8000a5ac:	eaffff4c 	b	8000a2e4 <namex>

8000a5b0 <kfree>:
8000a5b0:	e7eb2050 	ubfx	r2, r0, #0, #12
8000a5b4:	e3043d0c 	movw	r3, #19724	; 0x4d0c
8000a5b8:	e3483009 	movt	r3, #32777	; 0x8009
8000a5bc:	e92d4070 	push	{r4, r5, r6, lr}
8000a5c0:	e1500003 	cmp	r0, r3
8000a5c4:	23520000 	cmpcs	r2, #0
8000a5c8:	1a00001d 	bne	8000a644 <kfree+0x94>
8000a5cc:	e3022c94 	movw	r2, #11412	; 0x2c94
8000a5d0:	e2803102 	add	r3, r0, #-2147483648	; 0x80000000
8000a5d4:	e3482009 	movt	r2, #32777	; 0x8009
8000a5d8:	e1a05000 	mov	r5, r0
8000a5dc:	e5922000 	ldr	r2, [r2]
8000a5e0:	e1520003 	cmp	r2, r3
8000a5e4:	9a000016 	bls	8000a644 <kfree+0x94>
8000a5e8:	e3024bbc 	movw	r4, #11196	; 0x2bbc
8000a5ec:	e3a02a01 	mov	r2, #4096	; 0x1000
8000a5f0:	e3484009 	movt	r4, #32777	; 0x8009
8000a5f4:	e3a01001 	mov	r1, #1
8000a5f8:	eb000600 	bl	8000be00 <memset>
8000a5fc:	e5943034 	ldr	r3, [r4, #52]	; 0x34
8000a600:	e3530000 	cmp	r3, #0
8000a604:	1a000003 	bne	8000a618 <kfree+0x68>
8000a608:	e5943038 	ldr	r3, [r4, #56]	; 0x38
8000a60c:	e5853000 	str	r3, [r5]
8000a610:	e5845038 	str	r5, [r4, #56]	; 0x38
8000a614:	e8bd8070 	pop	{r4, r5, r6, pc}
8000a618:	e1a00004 	mov	r0, r4
8000a61c:	eb00059f 	bl	8000bca0 <acquire>
8000a620:	e5943034 	ldr	r3, [r4, #52]	; 0x34
8000a624:	e5942038 	ldr	r2, [r4, #56]	; 0x38
8000a628:	e3530000 	cmp	r3, #0
8000a62c:	e5852000 	str	r2, [r5]
8000a630:	e5845038 	str	r5, [r4, #56]	; 0x38
8000a634:	08bd8070 	popeq	{r4, r5, r6, pc}
8000a638:	e1a00004 	mov	r0, r4
8000a63c:	e8bd4070 	pop	{r4, r5, r6, lr}
8000a640:	ea0005cc 	b	8000bd78 <release>
8000a644:	e30e05a0 	movw	r0, #58784	; 0xe5a0
8000a648:	e3480000 	movt	r0, #32768	; 0x8000
8000a64c:	ebfff9b3 	bl	80008d20 <panic>

8000a650 <freerange>:
8000a650:	e2800eff 	add	r0, r0, #4080	; 0xff0
8000a654:	e280000f 	add	r0, r0, #15
8000a658:	e3c00eff 	bic	r0, r0, #4080	; 0xff0
8000a65c:	e3c0000f 	bic	r0, r0, #15
8000a660:	e92d4070 	push	{r4, r5, r6, lr}
8000a664:	e2804a01 	add	r4, r0, #4096	; 0x1000
8000a668:	e1510004 	cmp	r1, r4
8000a66c:	38bd8070 	popcc	{r4, r5, r6, pc}
8000a670:	e1a05001 	mov	r5, r1
8000a674:	e2440a01 	sub	r0, r4, #4096	; 0x1000
8000a678:	e2844a01 	add	r4, r4, #4096	; 0x1000
8000a67c:	ebffffcb 	bl	8000a5b0 <kfree>
8000a680:	e1540005 	cmp	r4, r5
8000a684:	9afffffa 	bls	8000a674 <freerange+0x24>
8000a688:	e8bd8070 	pop	{r4, r5, r6, pc}

8000a68c <kinit1>:
8000a68c:	e92d4070 	push	{r4, r5, r6, lr}
8000a690:	e1a04000 	mov	r4, r0
8000a694:	e2844eff 	add	r4, r4, #4080	; 0xff0
8000a698:	e3023c94 	movw	r3, #11412	; 0x2c94
8000a69c:	e3483009 	movt	r3, #32777	; 0x8009
8000a6a0:	e284400f 	add	r4, r4, #15
8000a6a4:	e3c44eff 	bic	r4, r4, #4080	; 0xff0
8000a6a8:	e3026bbc 	movw	r6, #11196	; 0x2bbc
8000a6ac:	e3486009 	movt	r6, #32777	; 0x8009
8000a6b0:	e1a05001 	mov	r5, r1
8000a6b4:	e3c4400f 	bic	r4, r4, #15
8000a6b8:	e30e15a8 	movw	r1, #58792	; 0xe5a8
8000a6bc:	e3481000 	movt	r1, #32768	; 0x8000
8000a6c0:	e3a02402 	mov	r2, #33554432	; 0x2000000
8000a6c4:	e5832000 	str	r2, [r3]
8000a6c8:	e1a00006 	mov	r0, r6
8000a6cc:	e2844a01 	add	r4, r4, #4096	; 0x1000
8000a6d0:	eb000554 	bl	8000bc28 <initlock>
8000a6d4:	e1550004 	cmp	r5, r4
8000a6d8:	e3a03000 	mov	r3, #0
8000a6dc:	e5863034 	str	r3, [r6, #52]	; 0x34
8000a6e0:	e5863038 	str	r3, [r6, #56]	; 0x38
8000a6e4:	38bd8070 	popcc	{r4, r5, r6, pc}
8000a6e8:	e2440a01 	sub	r0, r4, #4096	; 0x1000
8000a6ec:	e2844a01 	add	r4, r4, #4096	; 0x1000
8000a6f0:	ebffffae 	bl	8000a5b0 <kfree>
8000a6f4:	e1550004 	cmp	r5, r4
8000a6f8:	2afffffa 	bcs	8000a6e8 <kinit1+0x5c>
8000a6fc:	e8bd8070 	pop	{r4, r5, r6, pc}

8000a700 <kinit2>:
8000a700:	e2800eff 	add	r0, r0, #4080	; 0xff0
8000a704:	e280000f 	add	r0, r0, #15
8000a708:	e3c00eff 	bic	r0, r0, #4080	; 0xff0
8000a70c:	e3c0000f 	bic	r0, r0, #15
8000a710:	e92d4070 	push	{r4, r5, r6, lr}
8000a714:	e2804a01 	add	r4, r0, #4096	; 0x1000
8000a718:	e1510004 	cmp	r1, r4
8000a71c:	3a000005 	bcc	8000a738 <kinit2+0x38>
8000a720:	e1a05001 	mov	r5, r1
8000a724:	e2440a01 	sub	r0, r4, #4096	; 0x1000
8000a728:	e2844a01 	add	r4, r4, #4096	; 0x1000
8000a72c:	ebffff9f 	bl	8000a5b0 <kfree>
8000a730:	e1550004 	cmp	r5, r4
8000a734:	2afffffa 	bcs	8000a724 <kinit2+0x24>
8000a738:	e3023bbc 	movw	r3, #11196	; 0x2bbc
8000a73c:	e3a02001 	mov	r2, #1
8000a740:	e3483009 	movt	r3, #32777	; 0x8009
8000a744:	e5832034 	str	r2, [r3, #52]	; 0x34
8000a748:	e8bd8070 	pop	{r4, r5, r6, pc}

8000a74c <kalloc>:
8000a74c:	e92d4070 	push	{r4, r5, r6, lr}
8000a750:	e3024bbc 	movw	r4, #11196	; 0x2bbc
8000a754:	e3484009 	movt	r4, #32777	; 0x8009
8000a758:	e5943034 	ldr	r3, [r4, #52]	; 0x34
8000a75c:	e3530000 	cmp	r3, #0
8000a760:	1a000005 	bne	8000a77c <kalloc+0x30>
8000a764:	e5945038 	ldr	r5, [r4, #56]	; 0x38
8000a768:	e3550000 	cmp	r5, #0
8000a76c:	15953000 	ldrne	r3, [r5]
8000a770:	15843038 	strne	r3, [r4, #56]	; 0x38
8000a774:	e1a00005 	mov	r0, r5
8000a778:	e8bd8070 	pop	{r4, r5, r6, pc}
8000a77c:	e1a00004 	mov	r0, r4
8000a780:	eb000546 	bl	8000bca0 <acquire>
8000a784:	e5945038 	ldr	r5, [r4, #56]	; 0x38
8000a788:	e3550000 	cmp	r5, #0
8000a78c:	15952000 	ldrne	r2, [r5]
8000a790:	05943034 	ldreq	r3, [r4, #52]	; 0x34
8000a794:	15943034 	ldrne	r3, [r4, #52]	; 0x34
8000a798:	15842038 	strne	r2, [r4, #56]	; 0x38
8000a79c:	e3530000 	cmp	r3, #0
8000a7a0:	0afffff3 	beq	8000a774 <kalloc+0x28>
8000a7a4:	e3020bbc 	movw	r0, #11196	; 0x2bbc
8000a7a8:	e3480009 	movt	r0, #32777	; 0x8009
8000a7ac:	eb000571 	bl	8000bd78 <release>
8000a7b0:	e1a00005 	mov	r0, r5
8000a7b4:	e8bd8070 	pop	{r4, r5, r6, pc}

8000a7b8 <kmemfree>:
8000a7b8:	e3023bbc 	movw	r3, #11196	; 0x2bbc
8000a7bc:	e3483009 	movt	r3, #32777	; 0x8009
8000a7c0:	e5933038 	ldr	r3, [r3, #56]	; 0x38
8000a7c4:	e3530000 	cmp	r3, #0
8000a7c8:	0a000005 	beq	8000a7e4 <kmemfree+0x2c>
8000a7cc:	e3a00000 	mov	r0, #0
8000a7d0:	e5933000 	ldr	r3, [r3]
8000a7d4:	e2800001 	add	r0, r0, #1
8000a7d8:	e3530000 	cmp	r3, #0
8000a7dc:	1afffffb 	bne	8000a7d0 <kmemfree+0x18>
8000a7e0:	e12fff1e 	bx	lr
8000a7e4:	e1a00003 	mov	r0, r3
8000a7e8:	e12fff1e 	bx	lr

8000a7ec <install_trans>:
8000a7ec:	e92d41f0 	push	{r4, r5, r6, r7, r8, lr}
8000a7f0:	e3024bf8 	movw	r4, #11256	; 0x2bf8
8000a7f4:	e3484009 	movt	r4, #32777	; 0x8009
8000a7f8:	e5943044 	ldr	r3, [r4, #68]	; 0x44
8000a7fc:	e3530000 	cmp	r3, #0
8000a800:	d8bd81f0 	pople	{r4, r5, r6, r7, r8, pc}
8000a804:	e2848044 	add	r8, r4, #68	; 0x44
8000a808:	e3a05000 	mov	r5, #0
8000a80c:	e5941034 	ldr	r1, [r4, #52]	; 0x34
8000a810:	e5940040 	ldr	r0, [r4, #64]	; 0x40
8000a814:	e0851001 	add	r1, r5, r1
8000a818:	e2855001 	add	r5, r5, #1
8000a81c:	e2811001 	add	r1, r1, #1
8000a820:	ebfff761 	bl	800085ac <bread>
8000a824:	e5b81004 	ldr	r1, [r8, #4]!
8000a828:	e1a07000 	mov	r7, r0
8000a82c:	e5940040 	ldr	r0, [r4, #64]	; 0x40
8000a830:	ebfff75d 	bl	800085ac <bread>
8000a834:	e1a06000 	mov	r6, r0
8000a838:	e2871018 	add	r1, r7, #24
8000a83c:	e3a02c02 	mov	r2, #512	; 0x200
8000a840:	e2800018 	add	r0, r0, #24
8000a844:	eb00059b 	bl	8000beb8 <memmove>
8000a848:	e1a00006 	mov	r0, r6
8000a84c:	ebfff796 	bl	800086ac <bwrite>
8000a850:	e1a00007 	mov	r0, r7
8000a854:	ebfff79e 	bl	800086d4 <brelse>
8000a858:	e1a00006 	mov	r0, r6
8000a85c:	ebfff79c 	bl	800086d4 <brelse>
8000a860:	e5943044 	ldr	r3, [r4, #68]	; 0x44
8000a864:	e1530005 	cmp	r3, r5
8000a868:	caffffe7 	bgt	8000a80c <install_trans+0x20>
8000a86c:	e8bd81f0 	pop	{r4, r5, r6, r7, r8, pc}

8000a870 <write_head>:
8000a870:	e92d4070 	push	{r4, r5, r6, lr}
8000a874:	e3024bf8 	movw	r4, #11256	; 0x2bf8
8000a878:	e3484009 	movt	r4, #32777	; 0x8009
8000a87c:	e5941034 	ldr	r1, [r4, #52]	; 0x34
8000a880:	e5940040 	ldr	r0, [r4, #64]	; 0x40
8000a884:	ebfff748 	bl	800085ac <bread>
8000a888:	e5943044 	ldr	r3, [r4, #68]	; 0x44
8000a88c:	e1a05000 	mov	r5, r0
8000a890:	e5803018 	str	r3, [r0, #24]
8000a894:	e5940044 	ldr	r0, [r4, #68]	; 0x44
8000a898:	e3500000 	cmp	r0, #0
8000a89c:	da000007 	ble	8000a8c0 <write_head+0x50>
8000a8a0:	e0850100 	add	r0, r5, r0, lsl #2
8000a8a4:	e2843044 	add	r3, r4, #68	; 0x44
8000a8a8:	e2800018 	add	r0, r0, #24
8000a8ac:	e2852018 	add	r2, r5, #24
8000a8b0:	e5b31004 	ldr	r1, [r3, #4]!
8000a8b4:	e5a21004 	str	r1, [r2, #4]!
8000a8b8:	e1520000 	cmp	r2, r0
8000a8bc:	1afffffb 	bne	8000a8b0 <write_head+0x40>
8000a8c0:	e1a00005 	mov	r0, r5
8000a8c4:	ebfff778 	bl	800086ac <bwrite>
8000a8c8:	e1a00005 	mov	r0, r5
8000a8cc:	e8bd4070 	pop	{r4, r5, r6, lr}
8000a8d0:	eafff77f 	b	800086d4 <brelse>

8000a8d4 <initlog>:
8000a8d4:	e92d4010 	push	{r4, lr}
8000a8d8:	e3024bf8 	movw	r4, #11256	; 0x2bf8
8000a8dc:	e3484009 	movt	r4, #32777	; 0x8009
8000a8e0:	e24dd010 	sub	sp, sp, #16
8000a8e4:	e3a02070 	mov	r2, #112	; 0x70
8000a8e8:	e3a01000 	mov	r1, #0
8000a8ec:	e1a00004 	mov	r0, r4
8000a8f0:	eb000542 	bl	8000be00 <memset>
8000a8f4:	e30e15b0 	movw	r1, #58800	; 0xe5b0
8000a8f8:	e1a00004 	mov	r0, r4
8000a8fc:	e3481000 	movt	r1, #32768	; 0x8000
8000a900:	eb0004c8 	bl	8000bc28 <initlock>
8000a904:	e1a0100d 	mov	r1, sp
8000a908:	e3a00001 	mov	r0, #1
8000a90c:	ebfffc06 	bl	8000992c <readsb>
8000a910:	e59d200c 	ldr	r2, [sp, #12]
8000a914:	e3a03001 	mov	r3, #1
8000a918:	e59d1000 	ldr	r1, [sp]
8000a91c:	e1a00003 	mov	r0, r3
8000a920:	e5842038 	str	r2, [r4, #56]	; 0x38
8000a924:	e0411002 	sub	r1, r1, r2
8000a928:	e5841034 	str	r1, [r4, #52]	; 0x34
8000a92c:	e5843040 	str	r3, [r4, #64]	; 0x40
8000a930:	ebfff71d 	bl	800085ac <bread>
8000a934:	e590c018 	ldr	ip, [r0, #24]
8000a938:	e584c044 	str	ip, [r4, #68]	; 0x44
8000a93c:	e35c0000 	cmp	ip, #0
8000a940:	da000006 	ble	8000a960 <initlog+0x8c>
8000a944:	e2803018 	add	r3, r0, #24
8000a948:	e2842044 	add	r2, r4, #68	; 0x44
8000a94c:	e083c10c 	add	ip, r3, ip, lsl #2
8000a950:	e5b31004 	ldr	r1, [r3, #4]!
8000a954:	e153000c 	cmp	r3, ip
8000a958:	e5a21004 	str	r1, [r2, #4]!
8000a95c:	1afffffb 	bne	8000a950 <initlog+0x7c>
8000a960:	ebfff75b 	bl	800086d4 <brelse>
8000a964:	ebffffa0 	bl	8000a7ec <install_trans>
8000a968:	e3a03000 	mov	r3, #0
8000a96c:	e5843044 	str	r3, [r4, #68]	; 0x44
8000a970:	ebffffbe 	bl	8000a870 <write_head>
8000a974:	e28dd010 	add	sp, sp, #16
8000a978:	e8bd8010 	pop	{r4, pc}

8000a97c <begin_trans>:
8000a97c:	e92d4070 	push	{r4, r5, r6, lr}
8000a980:	e3024bf8 	movw	r4, #11256	; 0x2bf8
8000a984:	e3484009 	movt	r4, #32777	; 0x8009
8000a988:	e1a00004 	mov	r0, r4
8000a98c:	eb0004c3 	bl	8000bca0 <acquire>
8000a990:	e594303c 	ldr	r3, [r4, #60]	; 0x3c
8000a994:	e3530000 	cmp	r3, #0
8000a998:	0a000007 	beq	8000a9bc <begin_trans+0x40>
8000a99c:	e1a05004 	mov	r5, r4
8000a9a0:	e3020bf8 	movw	r0, #11256	; 0x2bf8
8000a9a4:	e1a01005 	mov	r1, r5
8000a9a8:	e3480009 	movt	r0, #32777	; 0x8009
8000a9ac:	eb0003fd 	bl	8000b9a8 <sleep>
8000a9b0:	e594303c 	ldr	r3, [r4, #60]	; 0x3c
8000a9b4:	e3530000 	cmp	r3, #0
8000a9b8:	1afffff8 	bne	8000a9a0 <begin_trans+0x24>
8000a9bc:	e3020bf8 	movw	r0, #11256	; 0x2bf8
8000a9c0:	e3a03001 	mov	r3, #1
8000a9c4:	e584303c 	str	r3, [r4, #60]	; 0x3c
8000a9c8:	e3480009 	movt	r0, #32777	; 0x8009
8000a9cc:	e8bd4070 	pop	{r4, r5, r6, lr}
8000a9d0:	ea0004e8 	b	8000bd78 <release>

8000a9d4 <commit_trans>:
8000a9d4:	e92d4010 	push	{r4, lr}
8000a9d8:	e3024bf8 	movw	r4, #11256	; 0x2bf8
8000a9dc:	e3484009 	movt	r4, #32777	; 0x8009
8000a9e0:	e5943044 	ldr	r3, [r4, #68]	; 0x44
8000a9e4:	e3530000 	cmp	r3, #0
8000a9e8:	da000004 	ble	8000aa00 <commit_trans+0x2c>
8000a9ec:	ebffff9f 	bl	8000a870 <write_head>
8000a9f0:	ebffff7d 	bl	8000a7ec <install_trans>
8000a9f4:	e3a03000 	mov	r3, #0
8000a9f8:	e5843044 	str	r3, [r4, #68]	; 0x44
8000a9fc:	ebffff9b 	bl	8000a870 <write_head>
8000aa00:	e3020bf8 	movw	r0, #11256	; 0x2bf8
8000aa04:	e3480009 	movt	r0, #32777	; 0x8009
8000aa08:	eb0004a4 	bl	8000bca0 <acquire>
8000aa0c:	e3020bf8 	movw	r0, #11256	; 0x2bf8
8000aa10:	e3a03000 	mov	r3, #0
8000aa14:	e3480009 	movt	r0, #32777	; 0x8009
8000aa18:	e584303c 	str	r3, [r4, #60]	; 0x3c
8000aa1c:	eb000444 	bl	8000bb34 <wakeup>
8000aa20:	e3020bf8 	movw	r0, #11256	; 0x2bf8
8000aa24:	e3480009 	movt	r0, #32777	; 0x8009
8000aa28:	e8bd4010 	pop	{r4, lr}
8000aa2c:	ea0004d1 	b	8000bd78 <release>

8000aa30 <log_write>:
8000aa30:	e92d41f0 	push	{r4, r5, r6, r7, r8, lr}
8000aa34:	e3025bf8 	movw	r5, #11256	; 0x2bf8
8000aa38:	e3485009 	movt	r5, #32777	; 0x8009
8000aa3c:	e5951044 	ldr	r1, [r5, #68]	; 0x44
8000aa40:	e3510009 	cmp	r1, #9
8000aa44:	ca000030 	bgt	8000ab0c <log_write+0xdc>
8000aa48:	e5953038 	ldr	r3, [r5, #56]	; 0x38
8000aa4c:	e2433001 	sub	r3, r3, #1
8000aa50:	e1510003 	cmp	r1, r3
8000aa54:	aa00002c 	bge	8000ab0c <log_write+0xdc>
8000aa58:	e595303c 	ldr	r3, [r5, #60]	; 0x3c
8000aa5c:	e3530000 	cmp	r3, #0
8000aa60:	0a00002c 	beq	8000ab18 <log_write+0xe8>
8000aa64:	e590c008 	ldr	ip, [r0, #8]
8000aa68:	e3510000 	cmp	r1, #0
8000aa6c:	e1a06000 	mov	r6, r0
8000aa70:	da000023 	ble	8000ab04 <log_write+0xd4>
8000aa74:	e5953048 	ldr	r3, [r5, #72]	; 0x48
8000aa78:	e153000c 	cmp	r3, ip
8000aa7c:	0a000020 	beq	8000ab04 <log_write+0xd4>
8000aa80:	e2853048 	add	r3, r5, #72	; 0x48
8000aa84:	e3a04000 	mov	r4, #0
8000aa88:	ea000002 	b	8000aa98 <log_write+0x68>
8000aa8c:	e5b32004 	ldr	r2, [r3, #4]!
8000aa90:	e152000c 	cmp	r2, ip
8000aa94:	0a000002 	beq	8000aaa4 <log_write+0x74>
8000aa98:	e2844001 	add	r4, r4, #1
8000aa9c:	e1510004 	cmp	r1, r4
8000aaa0:	1afffff9 	bne	8000aa8c <log_write+0x5c>
8000aaa4:	e5951034 	ldr	r1, [r5, #52]	; 0x34
8000aaa8:	e0853104 	add	r3, r5, r4, lsl #2
8000aaac:	e0841001 	add	r1, r4, r1
8000aab0:	e5960004 	ldr	r0, [r6, #4]
8000aab4:	e2811001 	add	r1, r1, #1
8000aab8:	e583c048 	str	ip, [r3, #72]	; 0x48
8000aabc:	ebfff6ba 	bl	800085ac <bread>
8000aac0:	e1a07000 	mov	r7, r0
8000aac4:	e3a02c02 	mov	r2, #512	; 0x200
8000aac8:	e2861018 	add	r1, r6, #24
8000aacc:	e2800018 	add	r0, r0, #24
8000aad0:	eb0004f8 	bl	8000beb8 <memmove>
8000aad4:	e1a00007 	mov	r0, r7
8000aad8:	ebfff6f3 	bl	800086ac <bwrite>
8000aadc:	e1a00007 	mov	r0, r7
8000aae0:	ebfff6fb 	bl	800086d4 <brelse>
8000aae4:	e5953044 	ldr	r3, [r5, #68]	; 0x44
8000aae8:	e1530004 	cmp	r3, r4
8000aaec:	e5963000 	ldr	r3, [r6]
8000aaf0:	02844001 	addeq	r4, r4, #1
8000aaf4:	05854044 	streq	r4, [r5, #68]	; 0x44
8000aaf8:	e3833004 	orr	r3, r3, #4
8000aafc:	e5863000 	str	r3, [r6]
8000ab00:	e8bd81f0 	pop	{r4, r5, r6, r7, r8, pc}
8000ab04:	e3a04000 	mov	r4, #0
8000ab08:	eaffffe5 	b	8000aaa4 <log_write+0x74>
8000ab0c:	e30e05b4 	movw	r0, #58804	; 0xe5b4
8000ab10:	e3480000 	movt	r0, #32768	; 0x8000
8000ab14:	ebfff881 	bl	80008d20 <panic>
8000ab18:	e30e05cc 	movw	r0, #58828	; 0xe5cc
8000ab1c:	e3480000 	movt	r0, #32768	; 0x8000
8000ab20:	ebfff87e 	bl	80008d20 <panic>

8000ab24 <create_request>:
8000ab24:	e52de004 	push	{lr}		; (str lr, [sp, #-4]!)
8000ab28:	e59dc004 	ldr	ip, [sp, #4]
8000ab2c:	e3c33102 	bic	r3, r3, #-2147483648	; 0x80000000
8000ab30:	e5801008 	str	r1, [r0, #8]
8000ab34:	e35c0000 	cmp	ip, #0
8000ab38:	e580200c 	str	r2, [r0, #12]
8000ab3c:	e1a0e122 	lsr	lr, r2, #2
8000ab40:	e5803010 	str	r3, [r0, #16]
8000ab44:	0a000011 	beq	8000ab90 <create_request+0x6c>
8000ab48:	e35e0000 	cmp	lr, #0
8000ab4c:	0a000006 	beq	8000ab6c <create_request+0x48>
8000ab50:	e1a0300c 	mov	r3, ip
8000ab54:	e2802014 	add	r2, r0, #20
8000ab58:	e08cc10e 	add	ip, ip, lr, lsl #2
8000ab5c:	e4931004 	ldr	r1, [r3], #4
8000ab60:	e153000c 	cmp	r3, ip
8000ab64:	e4821004 	str	r1, [r2], #4
8000ab68:	1afffffb 	bne	8000ab5c <create_request+0x38>
8000ab6c:	e1a0e10e 	lsl	lr, lr, #2
8000ab70:	e3a02000 	mov	r2, #0
8000ab74:	e28ee014 	add	lr, lr, #20
8000ab78:	e780200e 	str	r2, [r0, lr]
8000ab7c:	e590300c 	ldr	r3, [r0, #12]
8000ab80:	e2833018 	add	r3, r3, #24
8000ab84:	e5803000 	str	r3, [r0]
8000ab88:	e5802004 	str	r2, [r0, #4]
8000ab8c:	e49df004 	pop	{pc}		; (ldr pc, [sp], #4)
8000ab90:	e35e0000 	cmp	lr, #0
8000ab94:	0afffff4 	beq	8000ab6c <create_request+0x48>
8000ab98:	e080110e 	add	r1, r0, lr, lsl #2
8000ab9c:	e1a0300c 	mov	r3, ip
8000aba0:	e2811014 	add	r1, r1, #20
8000aba4:	e2802014 	add	r2, r0, #20
8000aba8:	e4823004 	str	r3, [r2], #4
8000abac:	e1510002 	cmp	r1, r2
8000abb0:	1afffffc 	bne	8000aba8 <create_request+0x84>
8000abb4:	eaffffec 	b	8000ab6c <create_request+0x48>

8000abb8 <mailboxinit>:
8000abb8:	e92d4010 	push	{r4, lr}
8000abbc:	ebfffee2 	bl	8000a74c <kalloc>
8000abc0:	e3023c68 	movw	r3, #11368	; 0x2c68
8000abc4:	e3483009 	movt	r3, #32777	; 0x8009
8000abc8:	e5830000 	str	r0, [r3]
8000abcc:	e8bd8010 	pop	{r4, pc}

8000abd0 <readmailbox>:
8000abd0:	e30b2898 	movw	r2, #47256	; 0xb898
8000abd4:	e30bc880 	movw	ip, #47232	; 0xb880
8000abd8:	e34d2000 	movt	r2, #53248	; 0xd000
8000abdc:	e200000f 	and	r0, r0, #15
8000abe0:	e34dc000 	movt	ip, #53248	; 0xd000
8000abe4:	e5923000 	ldr	r3, [r2]
8000abe8:	e3130101 	tst	r3, #1073741824	; 0x40000000
8000abec:	1afffffc 	bne	8000abe4 <readmailbox+0x14>
8000abf0:	e59c3000 	ldr	r3, [ip]
8000abf4:	e203100f 	and	r1, r3, #15
8000abf8:	e1500001 	cmp	r0, r1
8000abfc:	1afffff8 	bne	8000abe4 <readmailbox+0x14>
8000ac00:	e3c3000f 	bic	r0, r3, #15
8000ac04:	e12fff1e 	bx	lr

8000ac08 <writemailbox>:
8000ac08:	e2800101 	add	r0, r0, #1073741824	; 0x40000000
8000ac0c:	e201100f 	and	r1, r1, #15
8000ac10:	e92d4010 	push	{r4, lr}
8000ac14:	e3c0000f 	bic	r0, r0, #15
8000ac18:	e1804001 	orr	r4, r0, r1
8000ac1c:	ebfff585 	bl	80008238 <flush_dcache_all>
8000ac20:	e30b2898 	movw	r2, #47256	; 0xb898
8000ac24:	e34d2000 	movt	r2, #53248	; 0xd000
8000ac28:	e5923000 	ldr	r3, [r2]
8000ac2c:	e3530000 	cmp	r3, #0
8000ac30:	bafffffc 	blt	8000ac28 <writemailbox+0x20>
8000ac34:	e30b38a0 	movw	r3, #47264	; 0xb8a0
8000ac38:	e34d3000 	movt	r3, #53248	; 0xd000
8000ac3c:	e5834000 	str	r4, [r3]
8000ac40:	e8bd8010 	pop	{r4, pc}

8000ac44 <OkLoop>:
8000ac44:	e92d4010 	push	{r4, lr}
8000ac48:	e3a01001 	mov	r1, #1
8000ac4c:	e3084480 	movw	r4, #33920	; 0x8480
8000ac50:	e3a00012 	mov	r0, #18
8000ac54:	e340401e 	movt	r4, #30
8000ac58:	eb000b72 	bl	8000da28 <setgpiofunc>
8000ac5c:	e3a01000 	mov	r1, #0
8000ac60:	e3a00012 	mov	r0, #18
8000ac64:	eb000b5c 	bl	8000d9dc <setgpioval>
8000ac68:	e1a00004 	mov	r0, r4
8000ac6c:	eb000a20 	bl	8000d4f4 <delay>
8000ac70:	e3a01001 	mov	r1, #1
8000ac74:	e3a00012 	mov	r0, #18
8000ac78:	eb000b57 	bl	8000d9dc <setgpioval>
8000ac7c:	e1a00004 	mov	r0, r4
8000ac80:	eb000a1b 	bl	8000d4f4 <delay>
8000ac84:	eafffff4 	b	8000ac5c <OkLoop+0x18>

8000ac88 <NotOkLoop>:
8000ac88:	e92d4010 	push	{r4, lr}
8000ac8c:	e3a01001 	mov	r1, #1
8000ac90:	e30a4120 	movw	r4, #41248	; 0xa120
8000ac94:	e3a00012 	mov	r0, #18
8000ac98:	e3404007 	movt	r4, #7
8000ac9c:	eb000b61 	bl	8000da28 <setgpiofunc>
8000aca0:	e3a01000 	mov	r1, #0
8000aca4:	e3a00012 	mov	r0, #18
8000aca8:	eb000b4b 	bl	8000d9dc <setgpioval>
8000acac:	e1a00004 	mov	r0, r4
8000acb0:	eb000a0f 	bl	8000d4f4 <delay>
8000acb4:	e3a01001 	mov	r1, #1
8000acb8:	e3a00012 	mov	r0, #18
8000acbc:	eb000b46 	bl	8000d9dc <setgpioval>
8000acc0:	e1a00004 	mov	r0, r4
8000acc4:	eb000a0a 	bl	8000d4f4 <delay>
8000acc8:	eafffff4 	b	8000aca0 <NotOkLoop+0x18>

8000accc <getpmsize>:
8000accc:	e92d4010 	push	{r4, lr}
8000acd0:	e3024c68 	movw	r4, #11368	; 0x2c68
8000acd4:	e3484009 	movt	r4, #32777	; 0x8009
8000acd8:	e24dd008 	sub	sp, sp, #8
8000acdc:	e3a03000 	mov	r3, #0
8000ace0:	e3a01005 	mov	r1, #5
8000ace4:	e58d3000 	str	r3, [sp]
8000ace8:	e3a02008 	mov	r2, #8
8000acec:	e5940000 	ldr	r0, [r4]
8000acf0:	e3401001 	movt	r1, #1
8000acf4:	ebffff8a 	bl	8000ab24 <create_request>
8000acf8:	e5940000 	ldr	r0, [r4]
8000acfc:	e3a01008 	mov	r1, #8
8000ad00:	ebffffc0 	bl	8000ac08 <writemailbox>
8000ad04:	e3a00008 	mov	r0, #8
8000ad08:	ebffffb0 	bl	8000abd0 <readmailbox>
8000ad0c:	e5943000 	ldr	r3, [r4]
8000ad10:	e5932004 	ldr	r2, [r3, #4]
8000ad14:	e3520102 	cmp	r2, #-2147483648	; 0x80000000
8000ad18:	0a000005 	beq	8000ad34 <getpmsize+0x68>
8000ad1c:	e3a01005 	mov	r1, #5
8000ad20:	e30e05e4 	movw	r0, #58852	; 0xe5e4
8000ad24:	e3401001 	movt	r1, #1
8000ad28:	e3480000 	movt	r0, #32768	; 0x8000
8000ad2c:	ebfff818 	bl	80008d94 <cprintf>
8000ad30:	e5943000 	ldr	r3, [r4]
8000ad34:	e5930018 	ldr	r0, [r3, #24]
8000ad38:	e28dd008 	add	sp, sp, #8
8000ad3c:	e8bd8010 	pop	{r4, pc}

8000ad40 <machinit>:
8000ad40:	e3010124 	movw	r0, #4388	; 0x1124
8000ad44:	e3a020e0 	mov	r2, #224	; 0xe0
8000ad48:	e3480009 	movt	r0, #32777	; 0x8009
8000ad4c:	e3a01000 	mov	r1, #0
8000ad50:	ea00042a 	b	8000be00 <memset>

8000ad54 <cmain>:
8000ad54:	e92d4010 	push	{r4, lr}
8000ad58:	eb000084 	bl	8000af70 <mmuinit0>
8000ad5c:	e3010124 	movw	r0, #4388	; 0x1124
8000ad60:	e3a020e0 	mov	r2, #224	; 0xe0
8000ad64:	e3480009 	movt	r0, #32777	; 0x8009
8000ad68:	e3a01000 	mov	r1, #0
8000ad6c:	e3a04000 	mov	r4, #0
8000ad70:	eb000422 	bl	8000be00 <memset>
8000ad74:	e3484080 	movt	r4, #32896	; 0x8080
8000ad78:	eb000b4b 	bl	8000daac <uartinit>
8000ad7c:	ebfff52a 	bl	8000822c <dsb_barrier>
8000ad80:	ebfff90a 	bl	800091b0 <consoleinit>
8000ad84:	e30e05fc 	movw	r0, #58876	; 0xe5fc
8000ad88:	e3480000 	movt	r0, #32768	; 0x8000
8000ad8c:	ebfff800 	bl	80008d94 <cprintf>
8000ad90:	e3040d0c 	movw	r0, #19724	; 0x4d0c
8000ad94:	e1a01004 	mov	r1, r4
8000ad98:	e3480009 	movt	r0, #32777	; 0x8009
8000ad9c:	ebfffe3a 	bl	8000a68c <kinit1>
8000ada0:	e3043d08 	movw	r3, #19720	; 0x4d08
8000ada4:	e3a02901 	mov	r2, #16384	; 0x4000
8000ada8:	e3483009 	movt	r3, #32777	; 0x8009
8000adac:	e3482000 	movt	r2, #32768	; 0x8000
8000adb0:	e5832000 	str	r2, [r3]
8000adb4:	ebffff7f 	bl	8000abb8 <mailboxinit>
8000adb8:	ebffffc3 	bl	8000accc <getpmsize>
8000adbc:	e3023c94 	movw	r3, #11412	; 0x2c94
8000adc0:	e1a02000 	mov	r2, r0
8000adc4:	e3483009 	movt	r3, #32777	; 0x8009
8000adc8:	e30e0614 	movw	r0, #58900	; 0xe614
8000adcc:	e3480000 	movt	r0, #32768	; 0x8000
8000add0:	e1a01002 	mov	r1, r2
8000add4:	e5832000 	str	r2, [r3]
8000add8:	ebfff7ed 	bl	80008d94 <cprintf>
8000addc:	eb00008c 	bl	8000b014 <mmuinit1>
8000ade0:	eb0001b4 	bl	8000b4b8 <pinit>
8000ade4:	eb0009df 	bl	8000d568 <tvinit>
8000ade8:	e30e0628 	movw	r0, #58920	; 0xe628
8000adec:	e3480000 	movt	r0, #32768	; 0x8000
8000adf0:	ebfff7e7 	bl	80008d94 <cprintf>
8000adf4:	ebfff5ca 	bl	80008524 <binit>
8000adf8:	e30e0640 	movw	r0, #58944	; 0xe640
8000adfc:	e3480000 	movt	r0, #32768	; 0x8000
8000ae00:	ebfff7e3 	bl	80008d94 <cprintf>
8000ae04:	ebfff9bf 	bl	80009508 <fileinit>
8000ae08:	e30e0658 	movw	r0, #58968	; 0xe658
8000ae0c:	e3480000 	movt	r0, #32768	; 0x8000
8000ae10:	ebfff7df 	bl	80008d94 <cprintf>
8000ae14:	ebfffb5d 	bl	80009b90 <iinit>
8000ae18:	e30e0674 	movw	r0, #58996	; 0xe674
8000ae1c:	e3480000 	movt	r0, #32768	; 0x8000
8000ae20:	ebfff7db 	bl	80008d94 <cprintf>
8000ae24:	eb000017 	bl	8000ae88 <ideinit>
8000ae28:	e30e068c 	movw	r0, #59020	; 0xe68c
8000ae2c:	e3480000 	movt	r0, #32768	; 0x8000
8000ae30:	ebfff7d7 	bl	80008d94 <cprintf>
8000ae34:	e3a01000 	mov	r1, #0
8000ae38:	e1a00004 	mov	r0, r4
8000ae3c:	e3481280 	movt	r1, #33408	; 0x8280
8000ae40:	ebfffe2e 	bl	8000a700 <kinit2>
8000ae44:	e30e06a4 	movw	r0, #59044	; 0xe6a4
8000ae48:	e3480000 	movt	r0, #32768	; 0x8000
8000ae4c:	ebfff7d0 	bl	80008d94 <cprintf>
8000ae50:	eb0001a4 	bl	8000b4e8 <userinit>
8000ae54:	e30e06bc 	movw	r0, #59068	; 0xe6bc
8000ae58:	e3480000 	movt	r0, #32768	; 0x8000
8000ae5c:	ebfff7cc 	bl	80008d94 <cprintf>
8000ae60:	eb00097c 	bl	8000d458 <timer3init>
8000ae64:	e30e06d8 	movw	r0, #59096	; 0xe6d8
8000ae68:	e3480000 	movt	r0, #32768	; 0x8000
8000ae6c:	ebfff7c8 	bl	80008d94 <cprintf>
8000ae70:	ebfffe50 	bl	8000a7b8 <kmemfree>
8000ae74:	e1a01000 	mov	r1, r0
8000ae78:	e30e06f4 	movw	r0, #59124	; 0xe6f4
8000ae7c:	e3480000 	movt	r0, #32768	; 0x8000
8000ae80:	ebfff7c3 	bl	80008d94 <cprintf>
8000ae84:	eb000217 	bl	8000b6e8 <scheduler>

8000ae88 <ideinit>:
8000ae88:	e92d4010 	push	{r4, lr}
8000ae8c:	e30f3850 	movw	r3, #63568	; 0xf850
8000ae90:	e3483000 	movt	r3, #32768	; 0x8000
8000ae94:	e30f491c 	movw	r4, #63772	; 0xf91c
8000ae98:	e3484008 	movt	r4, #32776	; 0x8008
8000ae9c:	e30f0850 	movw	r0, #63568	; 0xf850
8000aea0:	e3480008 	movt	r0, #32776	; 0x8008
8000aea4:	e3a01c02 	mov	r1, #512	; 0x200
8000aea8:	e0400003 	sub	r0, r0, r3
8000aeac:	e5843000 	str	r3, [r4]
8000aeb0:	eb000463 	bl	8000c044 <div>
8000aeb4:	e5840004 	str	r0, [r4, #4]
8000aeb8:	e8bd8010 	pop	{r4, pc}

8000aebc <ideintr>:
8000aebc:	e12fff1e 	bx	lr

8000aec0 <iderw>:
8000aec0:	e5903000 	ldr	r3, [r0]
8000aec4:	e92d4010 	push	{r4, lr}
8000aec8:	e3130001 	tst	r3, #1
8000aecc:	0a00001b 	beq	8000af40 <iderw+0x80>
8000aed0:	e2032006 	and	r2, r3, #6
8000aed4:	e3520002 	cmp	r2, #2
8000aed8:	0a000021 	beq	8000af64 <iderw+0xa4>
8000aedc:	e5902004 	ldr	r2, [r0, #4]
8000aee0:	e1a04000 	mov	r4, r0
8000aee4:	e3520001 	cmp	r2, #1
8000aee8:	1a00001a 	bne	8000af58 <iderw+0x98>
8000aeec:	e5901008 	ldr	r1, [r0, #8]
8000aef0:	e30f291c 	movw	r2, #63772	; 0xf91c
8000aef4:	e3482008 	movt	r2, #32776	; 0x8008
8000aef8:	e5920004 	ldr	r0, [r2, #4]
8000aefc:	e1510000 	cmp	r1, r0
8000af00:	2a000011 	bcs	8000af4c <iderw+0x8c>
8000af04:	e5922000 	ldr	r2, [r2]
8000af08:	e3130004 	tst	r3, #4
8000af0c:	13c33004 	bicne	r3, r3, #4
8000af10:	e2840018 	add	r0, r4, #24
8000af14:	e0822481 	add	r2, r2, r1, lsl #9
8000af18:	11a01000 	movne	r1, r0
8000af1c:	15843000 	strne	r3, [r4]
8000af20:	11a00002 	movne	r0, r2
8000af24:	01a01002 	moveq	r1, r2
8000af28:	e3a02c02 	mov	r2, #512	; 0x200
8000af2c:	eb0003e1 	bl	8000beb8 <memmove>
8000af30:	e5943000 	ldr	r3, [r4]
8000af34:	e3833002 	orr	r3, r3, #2
8000af38:	e5843000 	str	r3, [r4]
8000af3c:	e8bd8010 	pop	{r4, pc}
8000af40:	e30e0720 	movw	r0, #59168	; 0xe720
8000af44:	e3480000 	movt	r0, #32768	; 0x8000
8000af48:	ebfff774 	bl	80008d20 <panic>
8000af4c:	e30e076c 	movw	r0, #59244	; 0xe76c
8000af50:	e3480000 	movt	r0, #32768	; 0x8000
8000af54:	ebfff771 	bl	80008d20 <panic>
8000af58:	e30e074c 	movw	r0, #59212	; 0xe74c
8000af5c:	e3480000 	movt	r0, #32768	; 0x8000
8000af60:	ebfff76e 	bl	80008d20 <panic>
8000af64:	e30e0734 	movw	r0, #59188	; 0xe734
8000af68:	e3480000 	movt	r0, #32768	; 0x8000
8000af6c:	ebfff76b 	bl	80008d20 <panic>

8000af70 <mmuinit0>:
8000af70:	e3a02000 	mov	r2, #0
8000af74:	e300040e 	movw	r0, #1038	; 0x40e
8000af78:	e3482010 	movt	r2, #32784	; 0x8010
8000af7c:	e1a03a22 	lsr	r3, r2, #20
8000af80:	e2821102 	add	r1, r2, #-2147483648	; 0x80000000
8000af84:	e1811000 	orr	r1, r1, r0
8000af88:	e2822601 	add	r2, r2, #1048576	; 0x100000
8000af8c:	e1a03103 	lsl	r3, r3, #2
8000af90:	e3520209 	cmp	r2, #-1879048192	; 0x90000000
8000af94:	e2833901 	add	r3, r3, #16384	; 0x4000
8000af98:	e5831000 	str	r1, [r3]
8000af9c:	1afffff6 	bne	8000af7c <mmuinit0+0xc>
8000afa0:	e3a0220d 	mov	r2, #-805306368	; 0xd0000000
8000afa4:	e3000402 	movw	r0, #1026	; 0x402
8000afa8:	e1a03a22 	lsr	r3, r2, #20
8000afac:	e282146f 	add	r1, r2, #1862270976	; 0x6f000000
8000afb0:	e1811000 	orr	r1, r1, r0
8000afb4:	e2822601 	add	r2, r2, #1048576	; 0x100000
8000afb8:	e1a03103 	lsl	r3, r3, #2
8000afbc:	e35204d1 	cmp	r2, #-788529152	; 0xd1000000
8000afc0:	e2833901 	add	r3, r3, #16384	; 0x4000
8000afc4:	e5831000 	str	r1, [r3]
8000afc8:	1afffff6 	bne	8000afa8 <mmuinit0+0x38>
8000afcc:	e3a02101 	mov	r2, #1073741824	; 0x40000000
8000afd0:	e3000402 	movw	r0, #1026	; 0x402
8000afd4:	e1a03a22 	lsr	r3, r2, #20
8000afd8:	e2821103 	add	r1, r2, #-1073741824	; 0xc0000000
8000afdc:	e1811000 	orr	r1, r1, r0
8000afe0:	e2822601 	add	r2, r2, #1048576	; 0x100000
8000afe4:	e1a03103 	lsl	r3, r3, #2
8000afe8:	e3520102 	cmp	r2, #-2147483648	; 0x80000000
8000afec:	e2833901 	add	r3, r3, #16384	; 0x4000
8000aff0:	e5831000 	str	r1, [r3]
8000aff4:	1afffff6 	bne	8000afd4 <mmuinit0+0x64>
8000aff8:	e3a01a07 	mov	r1, #28672	; 0x7000
8000affc:	e3a03a03 	mov	r3, #12288	; 0x3000
8000b000:	e3030001 	movw	r0, #12289	; 0x3001
8000b004:	e3002552 	movw	r2, #1362	; 0x552
8000b008:	e5810ffc 	str	r0, [r1, #4092]	; 0xffc
8000b00c:	e58323c0 	str	r2, [r3, #960]	; 0x3c0
8000b010:	e12fff1e 	bx	lr

8000b014 <mmuinit1>:
8000b014:	e3020c94 	movw	r0, #11412	; 0x2c94
8000b018:	e3480009 	movt	r0, #32777	; 0x8009
8000b01c:	e92d4010 	push	{r4, lr}
8000b020:	e5903000 	ldr	r3, [r0]
8000b024:	e3530201 	cmp	r3, #268435456	; 0x10000000
8000b028:	9a00000b 	bls	8000b05c <mmuinit1+0x48>
8000b02c:	e3a02201 	mov	r2, #268435456	; 0x10000000
8000b030:	e300c40e 	movw	ip, #1038	; 0x40e
8000b034:	e182100c 	orr	r1, r2, ip
8000b038:	e2823102 	add	r3, r2, #-2147483648	; 0x80000000
8000b03c:	e2822601 	add	r2, r2, #1048576	; 0x100000
8000b040:	e1a03a23 	lsr	r3, r3, #20
8000b044:	e1a03103 	lsl	r3, r3, #2
8000b048:	e2833901 	add	r3, r3, #16384	; 0x4000
8000b04c:	e5831000 	str	r1, [r3]
8000b050:	e5903000 	ldr	r3, [r0]
8000b054:	e1530002 	cmp	r3, r2
8000b058:	8afffff5 	bhi	8000b034 <mmuinit1+0x20>
8000b05c:	e3a01901 	mov	r1, #16384	; 0x4000
8000b060:	e3a03000 	mov	r3, #0
8000b064:	e1a00001 	mov	r0, r1
8000b068:	e5813000 	str	r3, [r1]
8000b06c:	ebfff47f 	bl	80008270 <flush_dcache>
8000b070:	e8bd4010 	pop	{r4, lr}
8000b074:	eafff475 	b	80008250 <flush_tlb>

8000b078 <pipealloc>:
8000b078:	e92d41f0 	push	{r4, r5, r6, r7, r8, lr}
8000b07c:	e3a04000 	mov	r4, #0
8000b080:	e5814000 	str	r4, [r1]
8000b084:	e1a05000 	mov	r5, r0
8000b088:	e5804000 	str	r4, [r0]
8000b08c:	e1a06001 	mov	r6, r1
8000b090:	ebfff928 	bl	80009538 <filealloc>
8000b094:	e1500004 	cmp	r0, r4
8000b098:	e5850000 	str	r0, [r5]
8000b09c:	0a000009 	beq	8000b0c8 <pipealloc+0x50>
8000b0a0:	ebfff924 	bl	80009538 <filealloc>
8000b0a4:	e1500004 	cmp	r0, r4
8000b0a8:	e5860000 	str	r0, [r6]
8000b0ac:	0a00000b 	beq	8000b0e0 <pipealloc+0x68>
8000b0b0:	ebfffda5 	bl	8000a74c <kalloc>
8000b0b4:	e2507000 	subs	r7, r0, #0
8000b0b8:	1a000010 	bne	8000b100 <pipealloc+0x88>
8000b0bc:	e5950000 	ldr	r0, [r5]
8000b0c0:	e3500000 	cmp	r0, #0
8000b0c4:	1a000008 	bne	8000b0ec <pipealloc+0x74>
8000b0c8:	e5960000 	ldr	r0, [r6]
8000b0cc:	e3500000 	cmp	r0, #0
8000b0d0:	0a000000 	beq	8000b0d8 <pipealloc+0x60>
8000b0d4:	ebfff944 	bl	800095ec <fileclose>
8000b0d8:	e3e00000 	mvn	r0, #0
8000b0dc:	e8bd81f0 	pop	{r4, r5, r6, r7, r8, pc}
8000b0e0:	e5950000 	ldr	r0, [r5]
8000b0e4:	e3500000 	cmp	r0, #0
8000b0e8:	0afffffa 	beq	8000b0d8 <pipealloc+0x60>
8000b0ec:	ebfff93e 	bl	800095ec <fileclose>
8000b0f0:	e5960000 	ldr	r0, [r6]
8000b0f4:	e3500000 	cmp	r0, #0
8000b0f8:	1afffff5 	bne	8000b0d4 <pipealloc+0x5c>
8000b0fc:	eafffff5 	b	8000b0d8 <pipealloc+0x60>
8000b100:	e3a02a01 	mov	r2, #4096	; 0x1000
8000b104:	e1a01004 	mov	r1, r4
8000b108:	e3a08001 	mov	r8, #1
8000b10c:	eb00033b 	bl	8000be00 <memset>
8000b110:	e5874238 	str	r4, [r7, #568]	; 0x238
8000b114:	e30e1788 	movw	r1, #59272	; 0xe788
8000b118:	e5874234 	str	r4, [r7, #564]	; 0x234
8000b11c:	e1a00007 	mov	r0, r7
8000b120:	e587823c 	str	r8, [r7, #572]	; 0x23c
8000b124:	e5878240 	str	r8, [r7, #576]	; 0x240
8000b128:	e3481000 	movt	r1, #32768	; 0x8000
8000b12c:	eb0002bd 	bl	8000bc28 <initlock>
8000b130:	e5952000 	ldr	r2, [r5]
8000b134:	e3a01c01 	mov	r1, #256	; 0x100
8000b138:	e1a00004 	mov	r0, r4
8000b13c:	e1c280b8 	strh	r8, [r2, #8]
8000b140:	e5963000 	ldr	r3, [r6]
8000b144:	e5828000 	str	r8, [r2]
8000b148:	e582700c 	str	r7, [r2, #12]
8000b14c:	e5838000 	str	r8, [r3]
8000b150:	e583700c 	str	r7, [r3, #12]
8000b154:	e1c310b8 	strh	r1, [r3, #8]
8000b158:	e8bd81f0 	pop	{r4, r5, r6, r7, r8, pc}

8000b15c <pipeclose>:
8000b15c:	e92d4070 	push	{r4, r5, r6, lr}
8000b160:	e1a05001 	mov	r5, r1
8000b164:	e1a04000 	mov	r4, r0
8000b168:	eb0002cc 	bl	8000bca0 <acquire>
8000b16c:	e3550000 	cmp	r5, #0
8000b170:	0584523c 	streq	r5, [r4, #572]	; 0x23c
8000b174:	13a03000 	movne	r3, #0
8000b178:	15843240 	strne	r3, [r4, #576]	; 0x240
8000b17c:	12840f8d 	addne	r0, r4, #564	; 0x234
8000b180:	02840f8e 	addeq	r0, r4, #568	; 0x238
8000b184:	eb00026a 	bl	8000bb34 <wakeup>
8000b188:	e594323c 	ldr	r3, [r4, #572]	; 0x23c
8000b18c:	e1a00004 	mov	r0, r4
8000b190:	e3530000 	cmp	r3, #0
8000b194:	1a000002 	bne	8000b1a4 <pipeclose+0x48>
8000b198:	e5943240 	ldr	r3, [r4, #576]	; 0x240
8000b19c:	e3530000 	cmp	r3, #0
8000b1a0:	0a000001 	beq	8000b1ac <pipeclose+0x50>
8000b1a4:	e8bd4070 	pop	{r4, r5, r6, lr}
8000b1a8:	ea0002f2 	b	8000bd78 <release>
8000b1ac:	eb0002f1 	bl	8000bd78 <release>
8000b1b0:	e1a00004 	mov	r0, r4
8000b1b4:	e8bd4070 	pop	{r4, r5, r6, lr}
8000b1b8:	eafffcfc 	b	8000a5b0 <kfree>

8000b1bc <pipewrite>:
8000b1bc:	e92d47f0 	push	{r4, r5, r6, r7, r8, r9, sl, lr}
8000b1c0:	e1a08002 	mov	r8, r2
8000b1c4:	e1a07001 	mov	r7, r1
8000b1c8:	e1a04000 	mov	r4, r0
8000b1cc:	eb0002b3 	bl	8000bca0 <acquire>
8000b1d0:	e3580000 	cmp	r8, #0
8000b1d4:	da000028 	ble	8000b27c <pipewrite+0xc0>
8000b1d8:	e5942238 	ldr	r2, [r4, #568]	; 0x238
8000b1dc:	e2477001 	sub	r7, r7, #1
8000b1e0:	e0879008 	add	r9, r7, r8
8000b1e4:	e301a124 	movw	sl, #4388	; 0x1124
8000b1e8:	e348a009 	movt	sl, #32777	; 0x8009
8000b1ec:	e2846f8d 	add	r6, r4, #564	; 0x234
8000b1f0:	e2845f8e 	add	r5, r4, #568	; 0x238
8000b1f4:	e5943234 	ldr	r3, [r4, #564]	; 0x234
8000b1f8:	e2833c02 	add	r3, r3, #512	; 0x200
8000b1fc:	e1520003 	cmp	r2, r3
8000b200:	0a00000e 	beq	8000b240 <pipewrite+0x84>
8000b204:	ea000014 	b	8000b25c <pipewrite+0xa0>
8000b208:	e59a3018 	ldr	r3, [sl, #24]
8000b20c:	e5933024 	ldr	r3, [r3, #36]	; 0x24
8000b210:	e3530000 	cmp	r3, #0
8000b214:	1a00000c 	bne	8000b24c <pipewrite+0x90>
8000b218:	e1a00006 	mov	r0, r6
8000b21c:	eb000244 	bl	8000bb34 <wakeup>
8000b220:	e1a01004 	mov	r1, r4
8000b224:	e1a00005 	mov	r0, r5
8000b228:	eb0001de 	bl	8000b9a8 <sleep>
8000b22c:	e5943234 	ldr	r3, [r4, #564]	; 0x234
8000b230:	e5942238 	ldr	r2, [r4, #568]	; 0x238
8000b234:	e2833c02 	add	r3, r3, #512	; 0x200
8000b238:	e1520003 	cmp	r2, r3
8000b23c:	1a000006 	bne	8000b25c <pipewrite+0xa0>
8000b240:	e594323c 	ldr	r3, [r4, #572]	; 0x23c
8000b244:	e3530000 	cmp	r3, #0
8000b248:	1affffee 	bne	8000b208 <pipewrite+0x4c>
8000b24c:	e1a00004 	mov	r0, r4
8000b250:	eb0002c8 	bl	8000bd78 <release>
8000b254:	e3e00000 	mvn	r0, #0
8000b258:	e8bd87f0 	pop	{r4, r5, r6, r7, r8, r9, sl, pc}
8000b25c:	e7e83052 	ubfx	r3, r2, #0, #9
8000b260:	e2822001 	add	r2, r2, #1
8000b264:	e5842238 	str	r2, [r4, #568]	; 0x238
8000b268:	e5f71001 	ldrb	r1, [r7, #1]!
8000b26c:	e0843003 	add	r3, r4, r3
8000b270:	e1570009 	cmp	r7, r9
8000b274:	e5c31034 	strb	r1, [r3, #52]	; 0x34
8000b278:	1affffdd 	bne	8000b1f4 <pipewrite+0x38>
8000b27c:	e2840f8d 	add	r0, r4, #564	; 0x234
8000b280:	eb00022b 	bl	8000bb34 <wakeup>
8000b284:	e1a00004 	mov	r0, r4
8000b288:	eb0002ba 	bl	8000bd78 <release>
8000b28c:	e1a00008 	mov	r0, r8
8000b290:	e8bd87f0 	pop	{r4, r5, r6, r7, r8, r9, sl, pc}

8000b294 <piperead>:
8000b294:	e92d41f0 	push	{r4, r5, r6, r7, r8, lr}
8000b298:	e1a04000 	mov	r4, r0
8000b29c:	e1a06002 	mov	r6, r2
8000b2a0:	e1a05001 	mov	r5, r1
8000b2a4:	eb00027d 	bl	8000bca0 <acquire>
8000b2a8:	e5943234 	ldr	r3, [r4, #564]	; 0x234
8000b2ac:	e5942238 	ldr	r2, [r4, #568]	; 0x238
8000b2b0:	e1530002 	cmp	r3, r2
8000b2b4:	1a000018 	bne	8000b31c <piperead+0x88>
8000b2b8:	e5943240 	ldr	r3, [r4, #576]	; 0x240
8000b2bc:	e3530000 	cmp	r3, #0
8000b2c0:	0a00002d 	beq	8000b37c <piperead+0xe8>
8000b2c4:	e3018124 	movw	r8, #4388	; 0x1124
8000b2c8:	e3488009 	movt	r8, #32777	; 0x8009
8000b2cc:	e5983018 	ldr	r3, [r8, #24]
8000b2d0:	e5933024 	ldr	r3, [r3, #36]	; 0x24
8000b2d4:	e3530000 	cmp	r3, #0
8000b2d8:	02847f8d 	addeq	r7, r4, #564	; 0x234
8000b2dc:	0a000007 	beq	8000b300 <piperead+0x6c>
8000b2e0:	ea000027 	b	8000b384 <piperead+0xf0>
8000b2e4:	e5943240 	ldr	r3, [r4, #576]	; 0x240
8000b2e8:	e3530000 	cmp	r3, #0
8000b2ec:	0a000022 	beq	8000b37c <piperead+0xe8>
8000b2f0:	e5983018 	ldr	r3, [r8, #24]
8000b2f4:	e5933024 	ldr	r3, [r3, #36]	; 0x24
8000b2f8:	e3530000 	cmp	r3, #0
8000b2fc:	1a000020 	bne	8000b384 <piperead+0xf0>
8000b300:	e1a01004 	mov	r1, r4
8000b304:	e1a00007 	mov	r0, r7
8000b308:	eb0001a6 	bl	8000b9a8 <sleep>
8000b30c:	e5943234 	ldr	r3, [r4, #564]	; 0x234
8000b310:	e5942238 	ldr	r2, [r4, #568]	; 0x238
8000b314:	e1530002 	cmp	r3, r2
8000b318:	0afffff1 	beq	8000b2e4 <piperead+0x50>
8000b31c:	e3560000 	cmp	r6, #0
8000b320:	c2451001 	subgt	r1, r5, #1
8000b324:	c3a05000 	movgt	r5, #0
8000b328:	ca000004 	bgt	8000b340 <piperead+0xac>
8000b32c:	ea000012 	b	8000b37c <piperead+0xe8>
8000b330:	e5943234 	ldr	r3, [r4, #564]	; 0x234
8000b334:	e5942238 	ldr	r2, [r4, #568]	; 0x238
8000b338:	e1530002 	cmp	r3, r2
8000b33c:	0a000008 	beq	8000b364 <piperead+0xd0>
8000b340:	e7e82053 	ubfx	r2, r3, #0, #9
8000b344:	e2855001 	add	r5, r5, #1
8000b348:	e0842002 	add	r2, r4, r2
8000b34c:	e2833001 	add	r3, r3, #1
8000b350:	e5843234 	str	r3, [r4, #564]	; 0x234
8000b354:	e1560005 	cmp	r6, r5
8000b358:	e5d23034 	ldrb	r3, [r2, #52]	; 0x34
8000b35c:	e5e13001 	strb	r3, [r1, #1]!
8000b360:	1afffff2 	bne	8000b330 <piperead+0x9c>
8000b364:	e2840f8e 	add	r0, r4, #568	; 0x238
8000b368:	eb0001f1 	bl	8000bb34 <wakeup>
8000b36c:	e1a00004 	mov	r0, r4
8000b370:	eb000280 	bl	8000bd78 <release>
8000b374:	e1a00005 	mov	r0, r5
8000b378:	e8bd81f0 	pop	{r4, r5, r6, r7, r8, pc}
8000b37c:	e3a05000 	mov	r5, #0
8000b380:	eafffff7 	b	8000b364 <piperead+0xd0>
8000b384:	e1a00004 	mov	r0, r4
8000b388:	e3e05000 	mvn	r5, #0
8000b38c:	eb000279 	bl	8000bd78 <release>
8000b390:	e1a00005 	mov	r0, r5
8000b394:	e8bd81f0 	pop	{r4, r5, r6, r7, r8, pc}

8000b398 <allocproc>:
8000b398:	e92d4070 	push	{r4, r5, r6, lr}
8000b39c:	e3020c98 	movw	r0, #11416	; 0x2c98
8000b3a0:	e59f40d8 	ldr	r4, [pc, #216]	; 8000b480 <allocproc+0xe8>
8000b3a4:	e3480009 	movt	r0, #32777	; 0x8009
8000b3a8:	eb00023c 	bl	8000bca0 <acquire>
8000b3ac:	e2843a02 	add	r3, r4, #8192	; 0x2000
8000b3b0:	ea000002 	b	8000b3c0 <allocproc+0x28>
8000b3b4:	e2844080 	add	r4, r4, #128	; 0x80
8000b3b8:	e1540003 	cmp	r4, r3
8000b3bc:	2a000029 	bcs	8000b468 <allocproc+0xd0>
8000b3c0:	e594500c 	ldr	r5, [r4, #12]
8000b3c4:	e3550000 	cmp	r5, #0
8000b3c8:	1afffff9 	bne	8000b3b4 <allocproc+0x1c>
8000b3cc:	e30f3868 	movw	r3, #63592	; 0xf868
8000b3d0:	e3a02001 	mov	r2, #1
8000b3d4:	e3483008 	movt	r3, #32776	; 0x8008
8000b3d8:	e3020c98 	movw	r0, #11416	; 0x2c98
8000b3dc:	e584200c 	str	r2, [r4, #12]
8000b3e0:	e5932000 	ldr	r2, [r3]
8000b3e4:	e3480009 	movt	r0, #32777	; 0x8009
8000b3e8:	e5842010 	str	r2, [r4, #16]
8000b3ec:	e2822001 	add	r2, r2, #1
8000b3f0:	e5832000 	str	r2, [r3]
8000b3f4:	eb00025f 	bl	8000bd78 <release>
8000b3f8:	ebfffcd3 	bl	8000a74c <kalloc>
8000b3fc:	e5840008 	str	r0, [r4, #8]
8000b400:	e3500000 	cmp	r0, #0
8000b404:	0584000c 	streq	r0, [r4, #12]
8000b408:	01a04000 	moveq	r4, r0
8000b40c:	0a000013 	beq	8000b460 <allocproc+0xc8>
8000b410:	e3a02a01 	mov	r2, #4096	; 0x1000
8000b414:	e1a01005 	mov	r1, r5
8000b418:	eb000278 	bl	8000be00 <memset>
8000b41c:	e5940008 	ldr	r0, [r4, #8]
8000b420:	e3a0202c 	mov	r2, #44	; 0x2c
8000b424:	e1a01005 	mov	r1, r5
8000b428:	e2803efa 	add	r3, r0, #4000	; 0xfa0
8000b42c:	e2800d3e 	add	r0, r0, #3968	; 0xf80
8000b430:	e584001c 	str	r0, [r4, #28]
8000b434:	e283300c 	add	r3, r3, #12
8000b438:	e5843018 	str	r3, [r4, #24]
8000b43c:	eb00026f 	bl	8000be00 <memset>
8000b440:	e594101c 	ldr	r1, [r4, #28]
8000b444:	e30b2484 	movw	r2, #46212	; 0xb484
8000b448:	e3482000 	movt	r2, #32768	; 0x8000
8000b44c:	e3083338 	movw	r3, #33592	; 0x8338
8000b450:	e3483000 	movt	r3, #32768	; 0x8000
8000b454:	e5812028 	str	r2, [r1, #40]	; 0x28
8000b458:	e5813024 	str	r3, [r1, #36]	; 0x24
8000b45c:	e584507c 	str	r5, [r4, #124]	; 0x7c
8000b460:	e1a00004 	mov	r0, r4
8000b464:	e8bd8070 	pop	{r4, r5, r6, pc}
8000b468:	e3020c98 	movw	r0, #11416	; 0x2c98
8000b46c:	e3a04000 	mov	r4, #0
8000b470:	e3480009 	movt	r0, #32777	; 0x8009
8000b474:	eb00023f 	bl	8000bd78 <release>
8000b478:	e1a00004 	mov	r0, r4
8000b47c:	e8bd8070 	pop	{r4, r5, r6, pc}
8000b480:	80092ccc 	.word	0x80092ccc

8000b484 <forkret>:
8000b484:	e3020c98 	movw	r0, #11416	; 0x2c98
8000b488:	e92d4010 	push	{r4, lr}
8000b48c:	e3480009 	movt	r0, #32777	; 0x8009
8000b490:	eb000238 	bl	8000bd78 <release>
8000b494:	e30f3868 	movw	r3, #63592	; 0xf868
8000b498:	e3483008 	movt	r3, #32776	; 0x8008
8000b49c:	e5932004 	ldr	r2, [r3, #4]
8000b4a0:	e3520000 	cmp	r2, #0
8000b4a4:	08bd8010 	popeq	{r4, pc}
8000b4a8:	e3a02000 	mov	r2, #0
8000b4ac:	e8bd4010 	pop	{r4, lr}
8000b4b0:	e5832004 	str	r2, [r3, #4]
8000b4b4:	eafffd06 	b	8000a8d4 <initlog>

8000b4b8 <pinit>:
8000b4b8:	e92d4010 	push	{r4, lr}
8000b4bc:	e3024c98 	movw	r4, #11416	; 0x2c98
8000b4c0:	e3484009 	movt	r4, #32777	; 0x8009
8000b4c4:	e3a01000 	mov	r1, #0
8000b4c8:	e1a00004 	mov	r0, r4
8000b4cc:	e3022034 	movw	r2, #8244	; 0x2034
8000b4d0:	eb00024a 	bl	8000be00 <memset>
8000b4d4:	e30e1790 	movw	r1, #59280	; 0xe790
8000b4d8:	e1a00004 	mov	r0, r4
8000b4dc:	e3481000 	movt	r1, #32768	; 0x8000
8000b4e0:	e8bd4010 	pop	{r4, lr}
8000b4e4:	ea0001cf 	b	8000bc28 <initlock>

8000b4e8 <userinit>:
8000b4e8:	e92d4070 	push	{r4, r5, r6, lr}
8000b4ec:	e30f2850 	movw	r2, #63568	; 0xf850
8000b4f0:	e3482000 	movt	r2, #32768	; 0x8000
8000b4f4:	e30f6800 	movw	r6, #63488	; 0xf800
8000b4f8:	e3486000 	movt	r6, #32768	; 0x8000
8000b4fc:	e0425006 	sub	r5, r2, r6
8000b500:	ebffffa4 	bl	8000b398 <allocproc>
8000b504:	e30f3924 	movw	r3, #63780	; 0xf924
8000b508:	e1a04000 	mov	r4, r0
8000b50c:	e3483008 	movt	r3, #32776	; 0x8008
8000b510:	e5830000 	str	r0, [r3]
8000b514:	eb000a3c 	bl	8000de0c <setupkvm>
8000b518:	e5840004 	str	r0, [r4, #4]
8000b51c:	e3500000 	cmp	r0, #0
8000b520:	0a000019 	beq	8000b58c <userinit+0xa4>
8000b524:	e1a02005 	mov	r2, r5
8000b528:	e1a01006 	mov	r1, r6
8000b52c:	e3a05a01 	mov	r5, #4096	; 0x1000
8000b530:	eb000a8b 	bl	8000df64 <inituvm>
8000b534:	e5845000 	str	r5, [r4]
8000b538:	e3a02054 	mov	r2, #84	; 0x54
8000b53c:	e5940018 	ldr	r0, [r4, #24]
8000b540:	e3a01000 	mov	r1, #0
8000b544:	eb00022d 	bl	8000be00 <memset>
8000b548:	e5943018 	ldr	r3, [r4, #24]
8000b54c:	e3a01000 	mov	r1, #0
8000b550:	e3a02010 	mov	r2, #16
8000b554:	e284006c 	add	r0, r4, #108	; 0x6c
8000b558:	e5831050 	str	r1, [r3, #80]	; 0x50
8000b55c:	e30e17b4 	movw	r1, #59316	; 0xe7b4
8000b560:	e5835000 	str	r5, [r3]
8000b564:	e583204c 	str	r2, [r3, #76]	; 0x4c
8000b568:	e3481000 	movt	r1, #32768	; 0x8000
8000b56c:	eb000298 	bl	8000bfd4 <safestrcpy>
8000b570:	e30e07c0 	movw	r0, #59328	; 0xe7c0
8000b574:	e3480000 	movt	r0, #32768	; 0x8000
8000b578:	ebfffc02 	bl	8000a588 <namei>
8000b57c:	e5840068 	str	r0, [r4, #104]	; 0x68
8000b580:	e3a03003 	mov	r3, #3
8000b584:	e584300c 	str	r3, [r4, #12]
8000b588:	e8bd8070 	pop	{r4, r5, r6, pc}
8000b58c:	e30e0798 	movw	r0, #59288	; 0xe798
8000b590:	e3480000 	movt	r0, #32768	; 0x8000
8000b594:	ebfff5e1 	bl	80008d20 <panic>

8000b598 <growproc>:
8000b598:	e92d4010 	push	{r4, lr}
8000b59c:	e3014124 	movw	r4, #4388	; 0x1124
8000b5a0:	e3484009 	movt	r4, #32777	; 0x8009
8000b5a4:	e2502000 	subs	r2, r0, #0
8000b5a8:	e5940018 	ldr	r0, [r4, #24]
8000b5ac:	e5901000 	ldr	r1, [r0]
8000b5b0:	ca000004 	bgt	8000b5c8 <growproc+0x30>
8000b5b4:	1a00000a 	bne	8000b5e4 <growproc+0x4c>
8000b5b8:	e5801000 	str	r1, [r0]
8000b5bc:	eb000a56 	bl	8000df1c <switchuvm>
8000b5c0:	e3a00000 	mov	r0, #0
8000b5c4:	e8bd8010 	pop	{r4, pc}
8000b5c8:	e0822001 	add	r2, r2, r1
8000b5cc:	e5900004 	ldr	r0, [r0, #4]
8000b5d0:	eb000aba 	bl	8000e0c0 <allocuvm>
8000b5d4:	e2501000 	subs	r1, r0, #0
8000b5d8:	0a000006 	beq	8000b5f8 <growproc+0x60>
8000b5dc:	e5940018 	ldr	r0, [r4, #24]
8000b5e0:	eafffff4 	b	8000b5b8 <growproc+0x20>
8000b5e4:	e0822001 	add	r2, r2, r1
8000b5e8:	e5900004 	ldr	r0, [r0, #4]
8000b5ec:	eb000af0 	bl	8000e1b4 <deallocuvm>
8000b5f0:	e2501000 	subs	r1, r0, #0
8000b5f4:	1afffff8 	bne	8000b5dc <growproc+0x44>
8000b5f8:	e3e00000 	mvn	r0, #0
8000b5fc:	e8bd8010 	pop	{r4, pc}

8000b600 <fork>:
8000b600:	e92d41f0 	push	{r4, r5, r6, r7, r8, lr}
8000b604:	ebffff63 	bl	8000b398 <allocproc>
8000b608:	e2507000 	subs	r7, r0, #0
8000b60c:	0a00002d 	beq	8000b6c8 <fork+0xc8>
8000b610:	e3016124 	movw	r6, #4388	; 0x1124
8000b614:	e3486009 	movt	r6, #32777	; 0x8009
8000b618:	e5963018 	ldr	r3, [r6, #24]
8000b61c:	e5931000 	ldr	r1, [r3]
8000b620:	e5930004 	ldr	r0, [r3, #4]
8000b624:	eb000b10 	bl	8000e26c <copyuvm>
8000b628:	e5870004 	str	r0, [r7, #4]
8000b62c:	e3500000 	cmp	r0, #0
8000b630:	e1a04000 	mov	r4, r0
8000b634:	0a000025 	beq	8000b6d0 <fork+0xd0>
8000b638:	e5968018 	ldr	r8, [r6, #24]
8000b63c:	e3a02054 	mov	r2, #84	; 0x54
8000b640:	e5973018 	ldr	r3, [r7, #24]
8000b644:	e2875028 	add	r5, r7, #40	; 0x28
8000b648:	e5980000 	ldr	r0, [r8]
8000b64c:	e3a04000 	mov	r4, #0
8000b650:	e5981018 	ldr	r1, [r8, #24]
8000b654:	e5870000 	str	r0, [r7]
8000b658:	e1a00003 	mov	r0, r3
8000b65c:	e5878014 	str	r8, [r7, #20]
8000b660:	eb00022b 	bl	8000bf14 <memcpy>
8000b664:	e5804004 	str	r4, [r0, #4]
8000b668:	e284300a 	add	r3, r4, #10
8000b66c:	e2844001 	add	r4, r4, #1
8000b670:	e7983103 	ldr	r3, [r8, r3, lsl #2]
8000b674:	e2530000 	subs	r0, r3, #0
8000b678:	0a000002 	beq	8000b688 <fork+0x88>
8000b67c:	ebfff7c8 	bl	800095a4 <filedup>
8000b680:	e5968018 	ldr	r8, [r6, #24]
8000b684:	e5850000 	str	r0, [r5]
8000b688:	e3540010 	cmp	r4, #16
8000b68c:	e2855004 	add	r5, r5, #4
8000b690:	1afffff4 	bne	8000b668 <fork+0x68>
8000b694:	e5980068 	ldr	r0, [r8, #104]	; 0x68
8000b698:	ebfff993 	bl	80009cec <idup>
8000b69c:	e5961018 	ldr	r1, [r6, #24]
8000b6a0:	e3a03003 	mov	r3, #3
8000b6a4:	e5870068 	str	r0, [r7, #104]	; 0x68
8000b6a8:	e1a02004 	mov	r2, r4
8000b6ac:	e587300c 	str	r3, [r7, #12]
8000b6b0:	e281106c 	add	r1, r1, #108	; 0x6c
8000b6b4:	e5975010 	ldr	r5, [r7, #16]
8000b6b8:	e287006c 	add	r0, r7, #108	; 0x6c
8000b6bc:	eb000244 	bl	8000bfd4 <safestrcpy>
8000b6c0:	e1a00005 	mov	r0, r5
8000b6c4:	e8bd81f0 	pop	{r4, r5, r6, r7, r8, pc}
8000b6c8:	e3e05000 	mvn	r5, #0
8000b6cc:	eafffffb 	b	8000b6c0 <fork+0xc0>
8000b6d0:	e5970008 	ldr	r0, [r7, #8]
8000b6d4:	e3e05000 	mvn	r5, #0
8000b6d8:	ebfffbb4 	bl	8000a5b0 <kfree>
8000b6dc:	e5874008 	str	r4, [r7, #8]
8000b6e0:	e587400c 	str	r4, [r7, #12]
8000b6e4:	eafffff5 	b	8000b6c0 <fork+0xc0>

8000b6e8 <scheduler>:
8000b6e8:	e30fa868 	movw	sl, #63592	; 0xf868
8000b6ec:	e3015124 	movw	r5, #4388	; 0x1124
8000b6f0:	e348a008 	movt	sl, #32776	; 0x8008
8000b6f4:	e3029c98 	movw	r9, #11416	; 0x2c98
8000b6f8:	e3485009 	movt	r5, #32777	; 0x8009
8000b6fc:	e3a08000 	mov	r8, #0
8000b700:	e59a3008 	ldr	r3, [sl, #8]
8000b704:	e92d4890 	push	{r4, r7, fp, lr}
8000b708:	e3530000 	cmp	r3, #0
8000b70c:	e59fb07c 	ldr	fp, [pc, #124]	; 8000b790 <scheduler+0xa8>
8000b710:	e3489009 	movt	r9, #32777	; 0x8009
8000b714:	158a8008 	strne	r8, [sl, #8]
8000b718:	0a00001a 	beq	8000b788 <scheduler+0xa0>
8000b71c:	e59f4070 	ldr	r4, [pc, #112]	; 8000b794 <scheduler+0xac>
8000b720:	e1a00009 	mov	r0, r9
8000b724:	e59f706c 	ldr	r7, [pc, #108]	; 8000b798 <scheduler+0xb0>
8000b728:	e3a06004 	mov	r6, #4
8000b72c:	eb00015b 	bl	8000bca0 <acquire>
8000b730:	e594300c 	ldr	r3, [r4, #12]
8000b734:	e3530003 	cmp	r3, #3
8000b738:	1a000009 	bne	8000b764 <scheduler+0x7c>
8000b73c:	e5854018 	str	r4, [r5, #24]
8000b740:	e1a00004 	mov	r0, r4
8000b744:	eb0009f4 	bl	8000df1c <switchuvm>
8000b748:	e5953018 	ldr	r3, [r5, #24]
8000b74c:	e1a00007 	mov	r0, r7
8000b750:	e584600c 	str	r6, [r4, #12]
8000b754:	e593101c 	ldr	r1, [r3, #28]
8000b758:	ebfff359 	bl	800084c4 <swtch>
8000b75c:	eb0009e2 	bl	8000deec <switchkvm>
8000b760:	e5858018 	str	r8, [r5, #24]
8000b764:	e2844080 	add	r4, r4, #128	; 0x80
8000b768:	e154000b 	cmp	r4, fp
8000b76c:	3affffef 	bcc	8000b730 <scheduler+0x48>
8000b770:	e1a00009 	mov	r0, r9
8000b774:	eb00017f 	bl	8000bd78 <release>
8000b778:	e59a3008 	ldr	r3, [sl, #8]
8000b77c:	e3530000 	cmp	r3, #0
8000b780:	158a8008 	strne	r8, [sl, #8]
8000b784:	1affffe4 	bne	8000b71c <scheduler+0x34>
8000b788:	ebfff349 	bl	800084b4 <sti>
8000b78c:	eaffffe2 	b	8000b71c <scheduler+0x34>
8000b790:	80094ccc 	.word	0x80094ccc
8000b794:	80092ccc 	.word	0x80092ccc
8000b798:	80091128 	.word	0x80091128

8000b79c <sched>:
8000b79c:	e3020c98 	movw	r0, #11416	; 0x2c98
8000b7a0:	e92d4070 	push	{r4, r5, r6, lr}
8000b7a4:	e3480009 	movt	r0, #32777	; 0x8009
8000b7a8:	eb000124 	bl	8000bc40 <holding>
8000b7ac:	e3500000 	cmp	r0, #0
8000b7b0:	0a000012 	beq	8000b800 <sched+0x64>
8000b7b4:	e3014124 	movw	r4, #4388	; 0x1124
8000b7b8:	e3484009 	movt	r4, #32777	; 0x8009
8000b7bc:	e594300c 	ldr	r3, [r4, #12]
8000b7c0:	e3530001 	cmp	r3, #1
8000b7c4:	1a000016 	bne	8000b824 <sched+0x88>
8000b7c8:	e5943018 	ldr	r3, [r4, #24]
8000b7cc:	e593300c 	ldr	r3, [r3, #12]
8000b7d0:	e3530004 	cmp	r3, #4
8000b7d4:	0a00000f 	beq	8000b818 <sched+0x7c>
8000b7d8:	ebfff32f 	bl	8000849c <readcpsr>
8000b7dc:	e3100080 	tst	r0, #128	; 0x80
8000b7e0:	0a000009 	beq	8000b80c <sched+0x70>
8000b7e4:	e5940018 	ldr	r0, [r4, #24]
8000b7e8:	e5945010 	ldr	r5, [r4, #16]
8000b7ec:	e5941004 	ldr	r1, [r4, #4]
8000b7f0:	e280001c 	add	r0, r0, #28
8000b7f4:	ebfff332 	bl	800084c4 <swtch>
8000b7f8:	e5845010 	str	r5, [r4, #16]
8000b7fc:	e8bd8070 	pop	{r4, r5, r6, pc}
8000b800:	e30e07c4 	movw	r0, #59332	; 0xe7c4
8000b804:	e3480000 	movt	r0, #32768	; 0x8000
8000b808:	ebfff544 	bl	80008d20 <panic>
8000b80c:	e30e07f4 	movw	r0, #59380	; 0xe7f4
8000b810:	e3480000 	movt	r0, #32768	; 0x8000
8000b814:	ebfff541 	bl	80008d20 <panic>
8000b818:	e30e07e4 	movw	r0, #59364	; 0xe7e4
8000b81c:	e3480000 	movt	r0, #32768	; 0x8000
8000b820:	ebfff53e 	bl	80008d20 <panic>
8000b824:	e30e07d8 	movw	r0, #59352	; 0xe7d8
8000b828:	e3480000 	movt	r0, #32768	; 0x8000
8000b82c:	ebfff53b 	bl	80008d20 <panic>

8000b830 <exit>:
8000b830:	e92d41f0 	push	{r4, r5, r6, r7, r8, lr}
8000b834:	e3017124 	movw	r7, #4388	; 0x1124
8000b838:	e3487009 	movt	r7, #32777	; 0x8009
8000b83c:	e30f6924 	movw	r6, #63780	; 0xf924
8000b840:	e3486008 	movt	r6, #32776	; 0x8008
8000b844:	e5973018 	ldr	r3, [r7, #24]
8000b848:	e5962000 	ldr	r2, [r6]
8000b84c:	e1530002 	cmp	r3, r2
8000b850:	13a04000 	movne	r4, #0
8000b854:	11a08004 	movne	r8, r4
8000b858:	0a000040 	beq	8000b960 <exit+0x130>
8000b85c:	e284500a 	add	r5, r4, #10
8000b860:	e7930105 	ldr	r0, [r3, r5, lsl #2]
8000b864:	e3500000 	cmp	r0, #0
8000b868:	0a000002 	beq	8000b878 <exit+0x48>
8000b86c:	ebfff75e 	bl	800095ec <fileclose>
8000b870:	e5973018 	ldr	r3, [r7, #24]
8000b874:	e7838105 	str	r8, [r3, r5, lsl #2]
8000b878:	e2844001 	add	r4, r4, #1
8000b87c:	e3540010 	cmp	r4, #16
8000b880:	1afffff5 	bne	8000b85c <exit+0x2c>
8000b884:	e5930068 	ldr	r0, [r3, #104]	; 0x68
8000b888:	ebfff97e 	bl	80009e88 <iput>
8000b88c:	e5973018 	ldr	r3, [r7, #24]
8000b890:	e3a02000 	mov	r2, #0
8000b894:	e3020c98 	movw	r0, #11416	; 0x2c98
8000b898:	e5832068 	str	r2, [r3, #104]	; 0x68
8000b89c:	e3480009 	movt	r0, #32777	; 0x8009
8000b8a0:	eb0000fe 	bl	8000bca0 <acquire>
8000b8a4:	e597e018 	ldr	lr, [r7, #24]
8000b8a8:	e3a0c003 	mov	ip, #3
8000b8ac:	e59f30b8 	ldr	r3, [pc, #184]	; 8000b96c <exit+0x13c>
8000b8b0:	e59e0014 	ldr	r0, [lr, #20]
8000b8b4:	e2831a02 	add	r1, r3, #8192	; 0x2000
8000b8b8:	e593200c 	ldr	r2, [r3, #12]
8000b8bc:	e3520002 	cmp	r2, #2
8000b8c0:	1a000002 	bne	8000b8d0 <exit+0xa0>
8000b8c4:	e5932020 	ldr	r2, [r3, #32]
8000b8c8:	e1500002 	cmp	r0, r2
8000b8cc:	0583c00c 	streq	ip, [r3, #12]
8000b8d0:	e2833080 	add	r3, r3, #128	; 0x80
8000b8d4:	e1530001 	cmp	r3, r1
8000b8d8:	3afffff6 	bcc	8000b8b8 <exit+0x88>
8000b8dc:	e596c000 	ldr	ip, [r6]
8000b8e0:	e3a04003 	mov	r4, #3
8000b8e4:	e59f0080 	ldr	r0, [pc, #128]	; 8000b96c <exit+0x13c>
8000b8e8:	ea000002 	b	8000b8f8 <exit+0xc8>
8000b8ec:	e2800080 	add	r0, r0, #128	; 0x80
8000b8f0:	e1500001 	cmp	r0, r1
8000b8f4:	2a000013 	bcs	8000b948 <exit+0x118>
8000b8f8:	e5903014 	ldr	r3, [r0, #20]
8000b8fc:	e15e0003 	cmp	lr, r3
8000b900:	1afffff9 	bne	8000b8ec <exit+0xbc>
8000b904:	e590300c 	ldr	r3, [r0, #12]
8000b908:	e580c014 	str	ip, [r0, #20]
8000b90c:	e3530005 	cmp	r3, #5
8000b910:	1afffff5 	bne	8000b8ec <exit+0xbc>
8000b914:	e59f3050 	ldr	r3, [pc, #80]	; 8000b96c <exit+0x13c>
8000b918:	e593200c 	ldr	r2, [r3, #12]
8000b91c:	e3520002 	cmp	r2, #2
8000b920:	1a000002 	bne	8000b930 <exit+0x100>
8000b924:	e5932020 	ldr	r2, [r3, #32]
8000b928:	e15c0002 	cmp	ip, r2
8000b92c:	0583400c 	streq	r4, [r3, #12]
8000b930:	e2833080 	add	r3, r3, #128	; 0x80
8000b934:	e1530001 	cmp	r3, r1
8000b938:	3afffff6 	bcc	8000b918 <exit+0xe8>
8000b93c:	e2800080 	add	r0, r0, #128	; 0x80
8000b940:	e1500001 	cmp	r0, r1
8000b944:	3affffeb 	bcc	8000b8f8 <exit+0xc8>
8000b948:	e3a03005 	mov	r3, #5
8000b94c:	e58e300c 	str	r3, [lr, #12]
8000b950:	ebffff91 	bl	8000b79c <sched>
8000b954:	e30e0818 	movw	r0, #59416	; 0xe818
8000b958:	e3480000 	movt	r0, #32768	; 0x8000
8000b95c:	ebfff4ef 	bl	80008d20 <panic>
8000b960:	e30e0808 	movw	r0, #59400	; 0xe808
8000b964:	e3480000 	movt	r0, #32768	; 0x8000
8000b968:	ebfff4ec 	bl	80008d20 <panic>
8000b96c:	80092ccc 	.word	0x80092ccc

8000b970 <yield>:
8000b970:	e92d4010 	push	{r4, lr}
8000b974:	e3024c98 	movw	r4, #11416	; 0x2c98
8000b978:	e3484009 	movt	r4, #32777	; 0x8009
8000b97c:	e1a00004 	mov	r0, r4
8000b980:	eb0000c6 	bl	8000bca0 <acquire>
8000b984:	e3013124 	movw	r3, #4388	; 0x1124
8000b988:	e3a02003 	mov	r2, #3
8000b98c:	e3483009 	movt	r3, #32777	; 0x8009
8000b990:	e5933018 	ldr	r3, [r3, #24]
8000b994:	e583200c 	str	r2, [r3, #12]
8000b998:	ebffff7f 	bl	8000b79c <sched>
8000b99c:	e1a00004 	mov	r0, r4
8000b9a0:	e8bd4010 	pop	{r4, lr}
8000b9a4:	ea0000f3 	b	8000bd78 <release>

8000b9a8 <sleep>:
8000b9a8:	e92d41f0 	push	{r4, r5, r6, r7, r8, lr}
8000b9ac:	e3014124 	movw	r4, #4388	; 0x1124
8000b9b0:	e3484009 	movt	r4, #32777	; 0x8009
8000b9b4:	e5943018 	ldr	r3, [r4, #24]
8000b9b8:	e3530000 	cmp	r3, #0
8000b9bc:	0a000023 	beq	8000ba50 <sleep+0xa8>
8000b9c0:	e3510000 	cmp	r1, #0
8000b9c4:	e1a06001 	mov	r6, r1
8000b9c8:	0a00001d 	beq	8000ba44 <sleep+0x9c>
8000b9cc:	e3025c98 	movw	r5, #11416	; 0x2c98
8000b9d0:	e1a07000 	mov	r7, r0
8000b9d4:	e3485009 	movt	r5, #32777	; 0x8009
8000b9d8:	e1510005 	cmp	r1, r5
8000b9dc:	0a000010 	beq	8000ba24 <sleep+0x7c>
8000b9e0:	e1a00005 	mov	r0, r5
8000b9e4:	eb0000ad 	bl	8000bca0 <acquire>
8000b9e8:	e1a00006 	mov	r0, r6
8000b9ec:	eb0000e1 	bl	8000bd78 <release>
8000b9f0:	e5943018 	ldr	r3, [r4, #24]
8000b9f4:	e3a02002 	mov	r2, #2
8000b9f8:	e5837020 	str	r7, [r3, #32]
8000b9fc:	e583200c 	str	r2, [r3, #12]
8000ba00:	ebffff65 	bl	8000b79c <sched>
8000ba04:	e5943018 	ldr	r3, [r4, #24]
8000ba08:	e3a02000 	mov	r2, #0
8000ba0c:	e1a00005 	mov	r0, r5
8000ba10:	e5832020 	str	r2, [r3, #32]
8000ba14:	eb0000d7 	bl	8000bd78 <release>
8000ba18:	e1a00006 	mov	r0, r6
8000ba1c:	e8bd41f0 	pop	{r4, r5, r6, r7, r8, lr}
8000ba20:	ea00009e 	b	8000bca0 <acquire>
8000ba24:	e5830020 	str	r0, [r3, #32]
8000ba28:	e3a02002 	mov	r2, #2
8000ba2c:	e583200c 	str	r2, [r3, #12]
8000ba30:	ebffff59 	bl	8000b79c <sched>
8000ba34:	e5943018 	ldr	r3, [r4, #24]
8000ba38:	e3a02000 	mov	r2, #0
8000ba3c:	e5832020 	str	r2, [r3, #32]
8000ba40:	e8bd81f0 	pop	{r4, r5, r6, r7, r8, pc}
8000ba44:	e30e082c 	movw	r0, #59436	; 0xe82c
8000ba48:	e3480000 	movt	r0, #32768	; 0x8000
8000ba4c:	ebfff4b3 	bl	80008d20 <panic>
8000ba50:	e30e0824 	movw	r0, #59428	; 0xe824
8000ba54:	e3480000 	movt	r0, #32768	; 0x8000
8000ba58:	ebfff4b0 	bl	80008d20 <panic>

8000ba5c <wait>:
8000ba5c:	e3020c98 	movw	r0, #11416	; 0x2c98
8000ba60:	e92d4070 	push	{r4, r5, r6, lr}
8000ba64:	e3016124 	movw	r6, #4388	; 0x1124
8000ba68:	e3480009 	movt	r0, #32777	; 0x8009
8000ba6c:	e59f50b8 	ldr	r5, [pc, #184]	; 8000bb2c <wait+0xd0>
8000ba70:	e3486009 	movt	r6, #32777	; 0x8009
8000ba74:	eb000089 	bl	8000bca0 <acquire>
8000ba78:	e5960018 	ldr	r0, [r6, #24]
8000ba7c:	e3a02000 	mov	r2, #0
8000ba80:	e59f40a8 	ldr	r4, [pc, #168]	; 8000bb30 <wait+0xd4>
8000ba84:	ea000002 	b	8000ba94 <wait+0x38>
8000ba88:	e2844080 	add	r4, r4, #128	; 0x80
8000ba8c:	e1540005 	cmp	r4, r5
8000ba90:	2a000017 	bcs	8000baf4 <wait+0x98>
8000ba94:	e5943014 	ldr	r3, [r4, #20]
8000ba98:	e1530000 	cmp	r3, r0
8000ba9c:	1afffff9 	bne	8000ba88 <wait+0x2c>
8000baa0:	e594300c 	ldr	r3, [r4, #12]
8000baa4:	e3a02001 	mov	r2, #1
8000baa8:	e3530005 	cmp	r3, #5
8000baac:	1afffff5 	bne	8000ba88 <wait+0x2c>
8000bab0:	e5940008 	ldr	r0, [r4, #8]
8000bab4:	e3a05000 	mov	r5, #0
8000bab8:	e5946010 	ldr	r6, [r4, #16]
8000babc:	ebfffabb 	bl	8000a5b0 <kfree>
8000bac0:	e5940004 	ldr	r0, [r4, #4]
8000bac4:	e5845008 	str	r5, [r4, #8]
8000bac8:	eb0009be 	bl	8000e1c8 <freevm>
8000bacc:	e584500c 	str	r5, [r4, #12]
8000bad0:	e3020c98 	movw	r0, #11416	; 0x2c98
8000bad4:	e3480009 	movt	r0, #32777	; 0x8009
8000bad8:	e5845010 	str	r5, [r4, #16]
8000badc:	e5845014 	str	r5, [r4, #20]
8000bae0:	e5c4506c 	strb	r5, [r4, #108]	; 0x6c
8000bae4:	e5845024 	str	r5, [r4, #36]	; 0x24
8000bae8:	eb0000a2 	bl	8000bd78 <release>
8000baec:	e1a00006 	mov	r0, r6
8000baf0:	e8bd8070 	pop	{r4, r5, r6, pc}
8000baf4:	e3520000 	cmp	r2, #0
8000baf8:	0a000006 	beq	8000bb18 <wait+0xbc>
8000bafc:	e5903024 	ldr	r3, [r0, #36]	; 0x24
8000bb00:	e3530000 	cmp	r3, #0
8000bb04:	1a000003 	bne	8000bb18 <wait+0xbc>
8000bb08:	e3021c98 	movw	r1, #11416	; 0x2c98
8000bb0c:	e3481009 	movt	r1, #32777	; 0x8009
8000bb10:	ebffffa4 	bl	8000b9a8 <sleep>
8000bb14:	eaffffd7 	b	8000ba78 <wait+0x1c>
8000bb18:	e3020c98 	movw	r0, #11416	; 0x2c98
8000bb1c:	e3e06000 	mvn	r6, #0
8000bb20:	e3480009 	movt	r0, #32777	; 0x8009
8000bb24:	eb000093 	bl	8000bd78 <release>
8000bb28:	eaffffef 	b	8000baec <wait+0x90>
8000bb2c:	80094ccc 	.word	0x80094ccc
8000bb30:	80092ccc 	.word	0x80092ccc

8000bb34 <wakeup>:
8000bb34:	e92d4010 	push	{r4, lr}
8000bb38:	e1a04000 	mov	r4, r0
8000bb3c:	e3020c98 	movw	r0, #11416	; 0x2c98
8000bb40:	e3480009 	movt	r0, #32777	; 0x8009
8000bb44:	eb000055 	bl	8000bca0 <acquire>
8000bb48:	e59f3038 	ldr	r3, [pc, #56]	; 8000bb88 <wakeup+0x54>
8000bb4c:	e3a00003 	mov	r0, #3
8000bb50:	e2831a02 	add	r1, r3, #8192	; 0x2000
8000bb54:	e593200c 	ldr	r2, [r3, #12]
8000bb58:	e3520002 	cmp	r2, #2
8000bb5c:	1a000002 	bne	8000bb6c <wakeup+0x38>
8000bb60:	e5932020 	ldr	r2, [r3, #32]
8000bb64:	e1540002 	cmp	r4, r2
8000bb68:	0583000c 	streq	r0, [r3, #12]
8000bb6c:	e2833080 	add	r3, r3, #128	; 0x80
8000bb70:	e1530001 	cmp	r3, r1
8000bb74:	3afffff6 	bcc	8000bb54 <wakeup+0x20>
8000bb78:	e3020c98 	movw	r0, #11416	; 0x2c98
8000bb7c:	e3480009 	movt	r0, #32777	; 0x8009
8000bb80:	e8bd4010 	pop	{r4, lr}
8000bb84:	ea00007b 	b	8000bd78 <release>
8000bb88:	80092ccc 	.word	0x80092ccc

8000bb8c <kill>:
8000bb8c:	e92d4010 	push	{r4, lr}
8000bb90:	e1a04000 	mov	r4, r0
8000bb94:	e3020c98 	movw	r0, #11416	; 0x2c98
8000bb98:	e3480009 	movt	r0, #32777	; 0x8009
8000bb9c:	eb00003f 	bl	8000bca0 <acquire>
8000bba0:	e59f305c 	ldr	r3, [pc, #92]	; 8000bc04 <kill+0x78>
8000bba4:	e2831a02 	add	r1, r3, #8192	; 0x2000
8000bba8:	ea000002 	b	8000bbb8 <kill+0x2c>
8000bbac:	e2833080 	add	r3, r3, #128	; 0x80
8000bbb0:	e1530001 	cmp	r3, r1
8000bbb4:	2a00000d 	bcs	8000bbf0 <kill+0x64>
8000bbb8:	e5932010 	ldr	r2, [r3, #16]
8000bbbc:	e1520004 	cmp	r2, r4
8000bbc0:	1afffff9 	bne	8000bbac <kill+0x20>
8000bbc4:	e593200c 	ldr	r2, [r3, #12]
8000bbc8:	e3a01001 	mov	r1, #1
8000bbcc:	e5831024 	str	r1, [r3, #36]	; 0x24
8000bbd0:	e3020c98 	movw	r0, #11416	; 0x2c98
8000bbd4:	e3480009 	movt	r0, #32777	; 0x8009
8000bbd8:	e3520002 	cmp	r2, #2
8000bbdc:	03a02003 	moveq	r2, #3
8000bbe0:	0583200c 	streq	r2, [r3, #12]
8000bbe4:	eb000063 	bl	8000bd78 <release>
8000bbe8:	e3a00000 	mov	r0, #0
8000bbec:	e8bd8010 	pop	{r4, pc}
8000bbf0:	e3020c98 	movw	r0, #11416	; 0x2c98
8000bbf4:	e3480009 	movt	r0, #32777	; 0x8009
8000bbf8:	eb00005e 	bl	8000bd78 <release>
8000bbfc:	e3e00000 	mvn	r0, #0
8000bc00:	e8bd8010 	pop	{r4, pc}
8000bc04:	80092ccc 	.word	0x80092ccc

8000bc08 <procdump>:
8000bc08:	e12fff1e 	bx	lr

8000bc0c <trace>:
8000bc0c:	e3013124 	movw	r3, #4388	; 0x1124
8000bc10:	e3a02001 	mov	r2, #1
8000bc14:	e3483009 	movt	r3, #32777	; 0x8009
8000bc18:	e1a00002 	mov	r0, r2
8000bc1c:	e5933018 	ldr	r3, [r3, #24]
8000bc20:	e583207c 	str	r2, [r3, #124]	; 0x7c
8000bc24:	e12fff1e 	bx	lr

8000bc28 <initlock>:
8000bc28:	e5801004 	str	r1, [r0, #4]
8000bc2c:	e3a03000 	mov	r3, #0
8000bc30:	e5803000 	str	r3, [r0]
8000bc34:	e5803008 	str	r3, [r0, #8]
8000bc38:	e12fff1e 	bx	lr

8000bc3c <getcallerpcs>:
8000bc3c:	e12fff1e 	bx	lr

8000bc40 <holding>:
8000bc40:	e5903000 	ldr	r3, [r0]
8000bc44:	e3530000 	cmp	r3, #0
8000bc48:	13013124 	movwne	r3, #4388	; 0x1124
8000bc4c:	15900008 	ldrne	r0, [r0, #8]
8000bc50:	13483009 	movtne	r3, #32777	; 0x8009
8000bc54:	10400003 	subne	r0, r0, r3
8000bc58:	116f0f10 	clzne	r0, r0
8000bc5c:	11a002a0 	lsrne	r0, r0, #5
8000bc60:	01a00003 	moveq	r0, r3
8000bc64:	e12fff1e 	bx	lr

8000bc68 <pushcli>:
8000bc68:	e92d4010 	push	{r4, lr}
8000bc6c:	ebfff20a 	bl	8000849c <readcpsr>
8000bc70:	e1a04000 	mov	r4, r0
8000bc74:	ebfff20a 	bl	800084a4 <cli>
8000bc78:	e3013124 	movw	r3, #4388	; 0x1124
8000bc7c:	e3483009 	movt	r3, #32777	; 0x8009
8000bc80:	e593200c 	ldr	r2, [r3, #12]
8000bc84:	e3520000 	cmp	r2, #0
8000bc88:	e2822001 	add	r2, r2, #1
8000bc8c:	e583200c 	str	r2, [r3, #12]
8000bc90:	02244080 	eoreq	r4, r4, #128	; 0x80
8000bc94:	07e043d4 	ubfxeq	r4, r4, #7, #1
8000bc98:	05834010 	streq	r4, [r3, #16]
8000bc9c:	e8bd8010 	pop	{r4, pc}

8000bca0 <acquire>:
8000bca0:	e92d4070 	push	{r4, r5, r6, lr}
8000bca4:	e1a04000 	mov	r4, r0
8000bca8:	e24dd008 	sub	sp, sp, #8
8000bcac:	ebffffed 	bl	8000bc68 <pushcli>
8000bcb0:	e5945000 	ldr	r5, [r4]
8000bcb4:	e3550000 	cmp	r5, #0
8000bcb8:	03011124 	movweq	r1, #4388	; 0x1124
8000bcbc:	03481009 	movteq	r1, #32777	; 0x8009
8000bcc0:	0a000004 	beq	8000bcd8 <acquire+0x38>
8000bcc4:	e5946008 	ldr	r6, [r4, #8]
8000bcc8:	e3011124 	movw	r1, #4388	; 0x1124
8000bccc:	e3481009 	movt	r1, #32777	; 0x8009
8000bcd0:	e1560001 	cmp	r6, r1
8000bcd4:	0a000004 	beq	8000bcec <acquire+0x4c>
8000bcd8:	e5841008 	str	r1, [r4, #8]
8000bcdc:	e3a03001 	mov	r3, #1
8000bce0:	e5843000 	str	r3, [r4]
8000bce4:	e28dd008 	add	sp, sp, #8
8000bce8:	e8bd8070 	pop	{r4, r5, r6, pc}
8000bcec:	e5944004 	ldr	r4, [r4, #4]
8000bcf0:	ebfff1e9 	bl	8000849c <readcpsr>
8000bcf4:	e58d0000 	str	r0, [sp]
8000bcf8:	e30e0840 	movw	r0, #59456	; 0xe840
8000bcfc:	e3480000 	movt	r0, #32768	; 0x8000
8000bd00:	e1a01004 	mov	r1, r4
8000bd04:	e1a03006 	mov	r3, r6
8000bd08:	e1a02005 	mov	r2, r5
8000bd0c:	ebfff420 	bl	80008d94 <cprintf>
8000bd10:	e30e0870 	movw	r0, #59504	; 0xe870
8000bd14:	e3480000 	movt	r0, #32768	; 0x8000
8000bd18:	ebfff400 	bl	80008d20 <panic>

8000bd1c <popcli>:
8000bd1c:	e92d4010 	push	{r4, lr}
8000bd20:	ebfff1dd 	bl	8000849c <readcpsr>
8000bd24:	e3100080 	tst	r0, #128	; 0x80
8000bd28:	0a00000c 	beq	8000bd60 <popcli+0x44>
8000bd2c:	e3013124 	movw	r3, #4388	; 0x1124
8000bd30:	e3483009 	movt	r3, #32777	; 0x8009
8000bd34:	e593200c 	ldr	r2, [r3, #12]
8000bd38:	e2422001 	sub	r2, r2, #1
8000bd3c:	e583200c 	str	r2, [r3, #12]
8000bd40:	e3520000 	cmp	r2, #0
8000bd44:	ba000008 	blt	8000bd6c <popcli+0x50>
8000bd48:	18bd8010 	popne	{r4, pc}
8000bd4c:	e5933010 	ldr	r3, [r3, #16]
8000bd50:	e3530000 	cmp	r3, #0
8000bd54:	08bd8010 	popeq	{r4, pc}
8000bd58:	e8bd4010 	pop	{r4, lr}
8000bd5c:	eafff1d4 	b	800084b4 <sti>
8000bd60:	e30e0878 	movw	r0, #59512	; 0xe878
8000bd64:	e3480000 	movt	r0, #32768	; 0x8000
8000bd68:	ebfff3ec 	bl	80008d20 <panic>
8000bd6c:	e30e0890 	movw	r0, #59536	; 0xe890
8000bd70:	e3480000 	movt	r0, #32768	; 0x8000
8000bd74:	ebfff3e9 	bl	80008d20 <panic>

8000bd78 <release>:
8000bd78:	e5903000 	ldr	r3, [r0]
8000bd7c:	e3530000 	cmp	r3, #0
8000bd80:	0a000009 	beq	8000bdac <release+0x34>
8000bd84:	e5902008 	ldr	r2, [r0, #8]
8000bd88:	e3013124 	movw	r3, #4388	; 0x1124
8000bd8c:	e3483009 	movt	r3, #32777	; 0x8009
8000bd90:	e1520003 	cmp	r2, r3
8000bd94:	1a000004 	bne	8000bdac <release+0x34>
8000bd98:	e3a03000 	mov	r3, #0
8000bd9c:	e580300c 	str	r3, [r0, #12]
8000bda0:	e5803008 	str	r3, [r0, #8]
8000bda4:	e5803000 	str	r3, [r0]
8000bda8:	eaffffdb 	b	8000bd1c <popcli>
8000bdac:	e30e0898 	movw	r0, #59544	; 0xe898
8000bdb0:	e92d4010 	push	{r4, lr}
8000bdb4:	e3480000 	movt	r0, #32768	; 0x8000
8000bdb8:	ebfff3d8 	bl	80008d20 <panic>

8000bdbc <memsetw>:
8000bdbc:	e3520000 	cmp	r2, #0
8000bdc0:	e2423001 	sub	r3, r2, #1
8000bdc4:	012fff1e 	bxeq	lr
8000bdc8:	e1a0c000 	mov	ip, r0
8000bdcc:	e2533001 	subs	r3, r3, #1
8000bdd0:	e48c1004 	str	r1, [ip], #4
8000bdd4:	2afffffc 	bcs	8000bdcc <memsetw+0x10>
8000bdd8:	e0800102 	add	r0, r0, r2, lsl #2
8000bddc:	e12fff1e 	bx	lr

8000bde0 <memsetb>:
8000bde0:	e3520000 	cmp	r2, #0
8000bde4:	012fff1e 	bxeq	lr
8000bde8:	e0802002 	add	r2, r0, r2
8000bdec:	e6ef1071 	uxtb	r1, r1
8000bdf0:	e4c01001 	strb	r1, [r0], #1
8000bdf4:	e1520000 	cmp	r2, r0
8000bdf8:	1afffffc 	bne	8000bdf0 <memsetb+0x10>
8000bdfc:	e12fff1e 	bx	lr

8000be00 <memset>:
8000be00:	e3100003 	tst	r0, #3
8000be04:	e1a03000 	mov	r3, r0
8000be08:	0a000007 	beq	8000be2c <memset+0x2c>
8000be0c:	e3520000 	cmp	r2, #0
8000be10:	0a000013 	beq	8000be64 <memset+0x64>
8000be14:	e0830002 	add	r0, r3, r2
8000be18:	e6ef1071 	uxtb	r1, r1
8000be1c:	e4c31001 	strb	r1, [r3], #1
8000be20:	e1530000 	cmp	r3, r0
8000be24:	1afffffc 	bne	8000be1c <memset+0x1c>
8000be28:	e12fff1e 	bx	lr
8000be2c:	e3120003 	tst	r2, #3
8000be30:	1afffff7 	bne	8000be14 <memset+0x14>
8000be34:	e1b00122 	lsrs	r0, r2, #2
8000be38:	e6ef1071 	uxtb	r1, r1
8000be3c:	e1a02801 	lsl	r2, r1, #16
8000be40:	e1822c01 	orr	r2, r2, r1, lsl #24
8000be44:	e1822001 	orr	r2, r2, r1
8000be48:	e1821401 	orr	r1, r2, r1, lsl #8
8000be4c:	0a000004 	beq	8000be64 <memset+0x64>
8000be50:	e0830100 	add	r0, r3, r0, lsl #2
8000be54:	e4831004 	str	r1, [r3], #4
8000be58:	e1530000 	cmp	r3, r0
8000be5c:	1afffffc 	bne	8000be54 <memset+0x54>
8000be60:	e12fff1e 	bx	lr
8000be64:	e1a00003 	mov	r0, r3
8000be68:	e12fff1e 	bx	lr

8000be6c <memcmp>:
8000be6c:	e3520000 	cmp	r2, #0
8000be70:	e242c001 	sub	ip, r2, #1
8000be74:	0a00000b 	beq	8000bea8 <memcmp+0x3c>
8000be78:	e5d02000 	ldrb	r2, [r0]
8000be7c:	e5d13000 	ldrb	r3, [r1]
8000be80:	e1530002 	cmp	r3, r2
8000be84:	0081c00c 	addeq	ip, r1, ip
8000be88:	0a000004 	beq	8000bea0 <memcmp+0x34>
8000be8c:	ea000007 	b	8000beb0 <memcmp+0x44>
8000be90:	e5f02001 	ldrb	r2, [r0, #1]!
8000be94:	e5f13001 	ldrb	r3, [r1, #1]!
8000be98:	e1520003 	cmp	r2, r3
8000be9c:	1a000003 	bne	8000beb0 <memcmp+0x44>
8000bea0:	e151000c 	cmp	r1, ip
8000bea4:	1afffff9 	bne	8000be90 <memcmp+0x24>
8000bea8:	e3a00000 	mov	r0, #0
8000beac:	e12fff1e 	bx	lr
8000beb0:	e0420003 	sub	r0, r2, r3
8000beb4:	e12fff1e 	bx	lr

8000beb8 <memmove>:
8000beb8:	e1510000 	cmp	r1, r0
8000bebc:	2a00000b 	bcs	8000bef0 <memmove+0x38>
8000bec0:	e0813002 	add	r3, r1, r2
8000bec4:	e1530000 	cmp	r3, r0
8000bec8:	9a000008 	bls	8000bef0 <memmove+0x38>
8000becc:	e080c002 	add	ip, r0, r2
8000bed0:	e3520000 	cmp	r2, #0
8000bed4:	012fff1e 	bxeq	lr
8000bed8:	e1a0200c 	mov	r2, ip
8000bedc:	e573c001 	ldrb	ip, [r3, #-1]!
8000bee0:	e1510003 	cmp	r1, r3
8000bee4:	e562c001 	strb	ip, [r2, #-1]!
8000bee8:	1afffffb 	bne	8000bedc <memmove+0x24>
8000beec:	e12fff1e 	bx	lr
8000bef0:	e3520000 	cmp	r2, #0
8000bef4:	012fff1e 	bxeq	lr
8000bef8:	e0812002 	add	r2, r1, r2
8000befc:	e2403001 	sub	r3, r0, #1
8000bf00:	e4d1c001 	ldrb	ip, [r1], #1
8000bf04:	e1520001 	cmp	r2, r1
8000bf08:	e5e3c001 	strb	ip, [r3, #1]!
8000bf0c:	1afffffb 	bne	8000bf00 <memmove+0x48>
8000bf10:	e12fff1e 	bx	lr

8000bf14 <memcpy>:
8000bf14:	eaffffe7 	b	8000beb8 <memmove>

8000bf18 <strncmp>:
8000bf18:	e3520000 	cmp	r2, #0
8000bf1c:	0a000010 	beq	8000bf64 <strncmp+0x4c>
8000bf20:	e5d03000 	ldrb	r3, [r0]
8000bf24:	e5d1c000 	ldrb	ip, [r1]
8000bf28:	e3530000 	cmp	r3, #0
8000bf2c:	0a00000f 	beq	8000bf70 <strncmp+0x58>
8000bf30:	e15c0003 	cmp	ip, r3
8000bf34:	1a00000d 	bne	8000bf70 <strncmp+0x58>
8000bf38:	e2422001 	sub	r2, r2, #1
8000bf3c:	e0812002 	add	r2, r1, r2
8000bf40:	ea000005 	b	8000bf5c <strncmp+0x44>
8000bf44:	e5f03001 	ldrb	r3, [r0, #1]!
8000bf48:	e3530000 	cmp	r3, #0
8000bf4c:	0a000006 	beq	8000bf6c <strncmp+0x54>
8000bf50:	e5f1c001 	ldrb	ip, [r1, #1]!
8000bf54:	e153000c 	cmp	r3, ip
8000bf58:	1a000004 	bne	8000bf70 <strncmp+0x58>
8000bf5c:	e1520001 	cmp	r2, r1
8000bf60:	1afffff7 	bne	8000bf44 <strncmp+0x2c>
8000bf64:	e3a00000 	mov	r0, #0
8000bf68:	e12fff1e 	bx	lr
8000bf6c:	e5d1c001 	ldrb	ip, [r1, #1]
8000bf70:	e043000c 	sub	r0, r3, ip
8000bf74:	e12fff1e 	bx	lr

8000bf78 <strncpy>:
8000bf78:	e52de004 	push	{lr}		; (str lr, [sp, #-4]!)
8000bf7c:	e2411001 	sub	r1, r1, #1
8000bf80:	e1a0c000 	mov	ip, r0
8000bf84:	ea000004 	b	8000bf9c <strncpy+0x24>
8000bf88:	e5f13001 	ldrb	r3, [r1, #1]!
8000bf8c:	e4cc3001 	strb	r3, [ip], #1
8000bf90:	e3530000 	cmp	r3, #0
8000bf94:	0a000003 	beq	8000bfa8 <strncpy+0x30>
8000bf98:	e1a0200e 	mov	r2, lr
8000bf9c:	e3520000 	cmp	r2, #0
8000bfa0:	e242e001 	sub	lr, r2, #1
8000bfa4:	cafffff7 	bgt	8000bf88 <strncpy+0x10>
8000bfa8:	e35e0000 	cmp	lr, #0
8000bfac:	d49df004 	pople	{pc}		; (ldrle pc, [sp], #4)
8000bfb0:	e1a0100c 	mov	r1, ip
8000bfb4:	e3a0e000 	mov	lr, #0
8000bfb8:	e4c1e001 	strb	lr, [r1], #1
8000bfbc:	e1e03001 	mvn	r3, r1
8000bfc0:	e08c3003 	add	r3, ip, r3
8000bfc4:	e0833002 	add	r3, r3, r2
8000bfc8:	e3530000 	cmp	r3, #0
8000bfcc:	cafffff9 	bgt	8000bfb8 <strncpy+0x40>
8000bfd0:	e49df004 	pop	{pc}		; (ldr pc, [sp], #4)

8000bfd4 <safestrcpy>:
8000bfd4:	e3520000 	cmp	r2, #0
8000bfd8:	d12fff1e 	bxle	lr
8000bfdc:	e2422001 	sub	r2, r2, #1
8000bfe0:	e2411001 	sub	r1, r1, #1
8000bfe4:	e080c002 	add	ip, r0, r2
8000bfe8:	e1a03000 	mov	r3, r0
8000bfec:	ea000003 	b	8000c000 <safestrcpy+0x2c>
8000bff0:	e5f12001 	ldrb	r2, [r1, #1]!
8000bff4:	e4c32001 	strb	r2, [r3], #1
8000bff8:	e3520000 	cmp	r2, #0
8000bffc:	0a000001 	beq	8000c008 <safestrcpy+0x34>
8000c000:	e153000c 	cmp	r3, ip
8000c004:	1afffff9 	bne	8000bff0 <safestrcpy+0x1c>
8000c008:	e3a02000 	mov	r2, #0
8000c00c:	e5c32000 	strb	r2, [r3]
8000c010:	e12fff1e 	bx	lr

8000c014 <strlen>:
8000c014:	e5d03000 	ldrb	r3, [r0]
8000c018:	e3530000 	cmp	r3, #0
8000c01c:	0a000006 	beq	8000c03c <strlen+0x28>
8000c020:	e1a03000 	mov	r3, r0
8000c024:	e3a00000 	mov	r0, #0
8000c028:	e5f32001 	ldrb	r2, [r3, #1]!
8000c02c:	e2800001 	add	r0, r0, #1
8000c030:	e3520000 	cmp	r2, #0
8000c034:	1afffffb 	bne	8000c028 <strlen+0x14>
8000c038:	e12fff1e 	bx	lr
8000c03c:	e1a00003 	mov	r0, r3
8000c040:	e12fff1e 	bx	lr

8000c044 <div>:
8000c044:	e3a02000 	mov	r2, #0
8000c048:	e3a0301f 	mov	r3, #31
8000c04c:	e92d4010 	push	{r4, lr}
8000c050:	e1a0e000 	mov	lr, r0
8000c054:	e3a04001 	mov	r4, #1
8000c058:	e1a00002 	mov	r0, r2
8000c05c:	e1a0c33e 	lsr	ip, lr, r3
8000c060:	e20cc001 	and	ip, ip, #1
8000c064:	e18c2082 	orr	r2, ip, r2, lsl #1
8000c068:	e1520001 	cmp	r2, r1
8000c06c:	20422001 	subcs	r2, r2, r1
8000c070:	21800314 	orrcs	r0, r0, r4, lsl r3
8000c074:	e2533001 	subs	r3, r3, #1
8000c078:	38bd8010 	popcc	{r4, pc}
8000c07c:	eafffff6 	b	8000c05c <div+0x18>

8000c080 <fetchint>:
8000c080:	e3013124 	movw	r3, #4388	; 0x1124
8000c084:	e3483009 	movt	r3, #32777	; 0x8009
8000c088:	e5933018 	ldr	r3, [r3, #24]
8000c08c:	e5933000 	ldr	r3, [r3]
8000c090:	e1530000 	cmp	r3, r0
8000c094:	9a000006 	bls	8000c0b4 <fetchint+0x34>
8000c098:	e2802004 	add	r2, r0, #4
8000c09c:	e1530002 	cmp	r3, r2
8000c0a0:	3a000003 	bcc	8000c0b4 <fetchint+0x34>
8000c0a4:	e5903000 	ldr	r3, [r0]
8000c0a8:	e3a00000 	mov	r0, #0
8000c0ac:	e5813000 	str	r3, [r1]
8000c0b0:	e12fff1e 	bx	lr
8000c0b4:	e3e00000 	mvn	r0, #0
8000c0b8:	e12fff1e 	bx	lr

8000c0bc <fetchstr>:
8000c0bc:	e3013124 	movw	r3, #4388	; 0x1124
8000c0c0:	e3483009 	movt	r3, #32777	; 0x8009
8000c0c4:	e5933018 	ldr	r3, [r3, #24]
8000c0c8:	e593c000 	ldr	ip, [r3]
8000c0cc:	e15c0000 	cmp	ip, r0
8000c0d0:	9a00000d 	bls	8000c10c <fetchstr+0x50>
8000c0d4:	e150000c 	cmp	r0, ip
8000c0d8:	e1a03000 	mov	r3, r0
8000c0dc:	e5810000 	str	r0, [r1]
8000c0e0:	2a000009 	bcs	8000c10c <fetchstr+0x50>
8000c0e4:	e5d02000 	ldrb	r2, [r0]
8000c0e8:	e3520000 	cmp	r2, #0
8000c0ec:	1a000003 	bne	8000c100 <fetchstr+0x44>
8000c0f0:	ea000009 	b	8000c11c <fetchstr+0x60>
8000c0f4:	e5d32000 	ldrb	r2, [r3]
8000c0f8:	e3520000 	cmp	r2, #0
8000c0fc:	0a000004 	beq	8000c114 <fetchstr+0x58>
8000c100:	e2833001 	add	r3, r3, #1
8000c104:	e15c0003 	cmp	ip, r3
8000c108:	8afffff9 	bhi	8000c0f4 <fetchstr+0x38>
8000c10c:	e3e00000 	mvn	r0, #0
8000c110:	e12fff1e 	bx	lr
8000c114:	e0430000 	sub	r0, r3, r0
8000c118:	e12fff1e 	bx	lr
8000c11c:	e1a00002 	mov	r0, r2
8000c120:	e12fff1e 	bx	lr

8000c124 <argint>:
8000c124:	e3013124 	movw	r3, #4388	; 0x1124
8000c128:	e3483009 	movt	r3, #32777	; 0x8009
8000c12c:	e5933018 	ldr	r3, [r3, #24]
8000c130:	e593c018 	ldr	ip, [r3, #24]
8000c134:	e5932000 	ldr	r2, [r3]
8000c138:	e59cc000 	ldr	ip, [ip]
8000c13c:	e08c3100 	add	r3, ip, r0, lsl #2
8000c140:	e1530002 	cmp	r3, r2
8000c144:	2a000006 	bcs	8000c164 <argint+0x40>
8000c148:	e2833004 	add	r3, r3, #4
8000c14c:	e1520003 	cmp	r2, r3
8000c150:	3a000003 	bcc	8000c164 <argint+0x40>
8000c154:	e79c3100 	ldr	r3, [ip, r0, lsl #2]
8000c158:	e3a00000 	mov	r0, #0
8000c15c:	e5813000 	str	r3, [r1]
8000c160:	e12fff1e 	bx	lr
8000c164:	e3e00000 	mvn	r0, #0
8000c168:	e12fff1e 	bx	lr

8000c16c <argptr>:
8000c16c:	e3013124 	movw	r3, #4388	; 0x1124
8000c170:	e3483009 	movt	r3, #32777	; 0x8009
8000c174:	e52de004 	push	{lr}		; (str lr, [sp, #-4]!)
8000c178:	e5933018 	ldr	r3, [r3, #24]
8000c17c:	e593e018 	ldr	lr, [r3, #24]
8000c180:	e593c000 	ldr	ip, [r3]
8000c184:	e59ee000 	ldr	lr, [lr]
8000c188:	e08e3100 	add	r3, lr, r0, lsl #2
8000c18c:	e153000c 	cmp	r3, ip
8000c190:	2a00000b 	bcs	8000c1c4 <argptr+0x58>
8000c194:	e2833004 	add	r3, r3, #4
8000c198:	e15c0003 	cmp	ip, r3
8000c19c:	3a000008 	bcc	8000c1c4 <argptr+0x58>
8000c1a0:	e79e3100 	ldr	r3, [lr, r0, lsl #2]
8000c1a4:	e153000c 	cmp	r3, ip
8000c1a8:	2a000005 	bcs	8000c1c4 <argptr+0x58>
8000c1ac:	e0822003 	add	r2, r2, r3
8000c1b0:	e152000c 	cmp	r2, ip
8000c1b4:	8a000002 	bhi	8000c1c4 <argptr+0x58>
8000c1b8:	e5813000 	str	r3, [r1]
8000c1bc:	e3a00000 	mov	r0, #0
8000c1c0:	e49df004 	pop	{pc}		; (ldr pc, [sp], #4)
8000c1c4:	e3e00000 	mvn	r0, #0
8000c1c8:	e49df004 	pop	{pc}		; (ldr pc, [sp], #4)

8000c1cc <argstr>:
8000c1cc:	e3013124 	movw	r3, #4388	; 0x1124
8000c1d0:	e3483009 	movt	r3, #32777	; 0x8009
8000c1d4:	e5933018 	ldr	r3, [r3, #24]
8000c1d8:	e5932018 	ldr	r2, [r3, #24]
8000c1dc:	e593c000 	ldr	ip, [r3]
8000c1e0:	e5922000 	ldr	r2, [r2]
8000c1e4:	e0823100 	add	r3, r2, r0, lsl #2
8000c1e8:	e153000c 	cmp	r3, ip
8000c1ec:	2a000016 	bcs	8000c24c <argstr+0x80>
8000c1f0:	e2833004 	add	r3, r3, #4
8000c1f4:	e15c0003 	cmp	ip, r3
8000c1f8:	3a000013 	bcc	8000c24c <argstr+0x80>
8000c1fc:	e52de004 	push	{lr}		; (str lr, [sp, #-4]!)
8000c200:	e792e100 	ldr	lr, [r2, r0, lsl #2]
8000c204:	e15e000c 	cmp	lr, ip
8000c208:	2a00000b 	bcs	8000c23c <argstr+0x70>
8000c20c:	e581e000 	str	lr, [r1]
8000c210:	e1a0300e 	mov	r3, lr
8000c214:	e5de0000 	ldrb	r0, [lr]
8000c218:	e3500000 	cmp	r0, #0
8000c21c:	1a000003 	bne	8000c230 <argstr+0x64>
8000c220:	e49df004 	pop	{pc}		; (ldr pc, [sp], #4)
8000c224:	e5d32000 	ldrb	r2, [r3]
8000c228:	e3520000 	cmp	r2, #0
8000c22c:	0a000004 	beq	8000c244 <argstr+0x78>
8000c230:	e2833001 	add	r3, r3, #1
8000c234:	e15c0003 	cmp	ip, r3
8000c238:	8afffff9 	bhi	8000c224 <argstr+0x58>
8000c23c:	e3e00000 	mvn	r0, #0
8000c240:	e49df004 	pop	{pc}		; (ldr pc, [sp], #4)
8000c244:	e043000e 	sub	r0, r3, lr
8000c248:	e49df004 	pop	{pc}		; (ldr pc, [sp], #4)
8000c24c:	e3e00000 	mvn	r0, #0
8000c250:	e12fff1e 	bx	lr

8000c254 <syscall>:
8000c254:	e92d4010 	push	{r4, lr}
8000c258:	e3014124 	movw	r4, #4388	; 0x1124
8000c25c:	e3484009 	movt	r4, #32777	; 0x8009
8000c260:	e5942018 	ldr	r2, [r4, #24]
8000c264:	e5923018 	ldr	r3, [r2, #24]
8000c268:	e5933004 	ldr	r3, [r3, #4]
8000c26c:	e2431001 	sub	r1, r3, #1
8000c270:	e3510016 	cmp	r1, #22
8000c274:	8a00000b 	bhi	8000c2a8 <syscall+0x54>
8000c278:	e30e18a0 	movw	r1, #59552	; 0xe8a0
8000c27c:	e3481000 	movt	r1, #32768	; 0x8000
8000c280:	e7911103 	ldr	r1, [r1, r3, lsl #2]
8000c284:	e3510000 	cmp	r1, #0
8000c288:	0a000006 	beq	8000c2a8 <syscall+0x54>
8000c28c:	e3530007 	cmp	r3, #7
8000c290:	0a00000e 	beq	8000c2d0 <syscall+0x7c>
8000c294:	e12fff31 	blx	r1
8000c298:	e5943018 	ldr	r3, [r4, #24]
8000c29c:	e5933018 	ldr	r3, [r3, #24]
8000c2a0:	e5830004 	str	r0, [r3, #4]
8000c2a4:	e8bd8010 	pop	{r4, pc}
8000c2a8:	e5921010 	ldr	r1, [r2, #16]
8000c2ac:	e30e0900 	movw	r0, #59648	; 0xe900
8000c2b0:	e3480000 	movt	r0, #32768	; 0x8000
8000c2b4:	e282206c 	add	r2, r2, #108	; 0x6c
8000c2b8:	ebfff2b5 	bl	80008d94 <cprintf>
8000c2bc:	e5943018 	ldr	r3, [r4, #24]
8000c2c0:	e3e02000 	mvn	r2, #0
8000c2c4:	e5933018 	ldr	r3, [r3, #24]
8000c2c8:	e5832004 	str	r2, [r3, #4]
8000c2cc:	e8bd8010 	pop	{r4, pc}
8000c2d0:	eb0002ff 	bl	8000ced4 <sys_exec>
8000c2d4:	e3700001 	cmn	r0, #1
8000c2d8:	18bd8010 	popne	{r4, pc}
8000c2dc:	eaffffed 	b	8000c298 <syscall+0x44>

8000c2e0 <create>:
8000c2e0:	e92d41f0 	push	{r4, r5, r6, r7, r8, lr}
8000c2e4:	e24dd018 	sub	sp, sp, #24
8000c2e8:	e1a06001 	mov	r6, r1
8000c2ec:	e28d1008 	add	r1, sp, #8
8000c2f0:	e1a08002 	mov	r8, r2
8000c2f4:	e1a07003 	mov	r7, r3
8000c2f8:	ebfff8a9 	bl	8000a5a4 <nameiparent>
8000c2fc:	e2505000 	subs	r5, r0, #0
8000c300:	0a000047 	beq	8000c424 <create+0x144>
8000c304:	ebfff685 	bl	80009d20 <ilock>
8000c308:	e28d2004 	add	r2, sp, #4
8000c30c:	e28d1008 	add	r1, sp, #8
8000c310:	e1a00005 	mov	r0, r5
8000c314:	ebfff7c2 	bl	8000a224 <dirlookup>
8000c318:	e2504000 	subs	r4, r0, #0
8000c31c:	0a00000b 	beq	8000c350 <create+0x70>
8000c320:	e1a00005 	mov	r0, r5
8000c324:	ebfff729 	bl	80009fd0 <iunlockput>
8000c328:	e1a00004 	mov	r0, r4
8000c32c:	ebfff67b 	bl	80009d20 <ilock>
8000c330:	e3560002 	cmp	r6, #2
8000c334:	1a00001e 	bne	8000c3b4 <create+0xd4>
8000c338:	e1d431f0 	ldrsh	r3, [r4, #16]
8000c33c:	e3530002 	cmp	r3, #2
8000c340:	1a00001b 	bne	8000c3b4 <create+0xd4>
8000c344:	e1a00004 	mov	r0, r4
8000c348:	e28dd018 	add	sp, sp, #24
8000c34c:	e8bd81f0 	pop	{r4, r5, r6, r7, r8, pc}
8000c350:	e5950000 	ldr	r0, [r5]
8000c354:	e1a01006 	mov	r1, r6
8000c358:	ebfff618 	bl	80009bc0 <ialloc>
8000c35c:	e2504000 	subs	r4, r0, #0
8000c360:	0a000034 	beq	8000c438 <create+0x158>
8000c364:	ebfff66d 	bl	80009d20 <ilock>
8000c368:	e1c481b2 	strh	r8, [r4, #18]
8000c36c:	e3a03001 	mov	r3, #1
8000c370:	e1c471b4 	strh	r7, [r4, #20]
8000c374:	e1a00004 	mov	r0, r4
8000c378:	e1c431b6 	strh	r3, [r4, #22]
8000c37c:	ebfff63b 	bl	80009c70 <iupdate>
8000c380:	e3560001 	cmp	r6, #1
8000c384:	0a000010 	beq	8000c3cc <create+0xec>
8000c388:	e5942004 	ldr	r2, [r4, #4]
8000c38c:	e28d1008 	add	r1, sp, #8
8000c390:	e1a00005 	mov	r0, r5
8000c394:	ebfff845 	bl	8000a4b0 <dirlink>
8000c398:	e3500000 	cmp	r0, #0
8000c39c:	ba000022 	blt	8000c42c <create+0x14c>
8000c3a0:	e1a00005 	mov	r0, r5
8000c3a4:	ebfff709 	bl	80009fd0 <iunlockput>
8000c3a8:	e1a00004 	mov	r0, r4
8000c3ac:	e28dd018 	add	sp, sp, #24
8000c3b0:	e8bd81f0 	pop	{r4, r5, r6, r7, r8, pc}
8000c3b4:	e1a00004 	mov	r0, r4
8000c3b8:	e3a04000 	mov	r4, #0
8000c3bc:	ebfff703 	bl	80009fd0 <iunlockput>
8000c3c0:	e1a00004 	mov	r0, r4
8000c3c4:	e28dd018 	add	sp, sp, #24
8000c3c8:	e8bd81f0 	pop	{r4, r5, r6, r7, r8, pc}
8000c3cc:	e1d531b6 	ldrh	r3, [r5, #22]
8000c3d0:	e1a00005 	mov	r0, r5
8000c3d4:	e2833001 	add	r3, r3, #1
8000c3d8:	e1c531b6 	strh	r3, [r5, #22]
8000c3dc:	ebfff623 	bl	80009c70 <iupdate>
8000c3e0:	e5942004 	ldr	r2, [r4, #4]
8000c3e4:	e30e192c 	movw	r1, #59692	; 0xe92c
8000c3e8:	e3481000 	movt	r1, #32768	; 0x8000
8000c3ec:	e1a00004 	mov	r0, r4
8000c3f0:	ebfff82e 	bl	8000a4b0 <dirlink>
8000c3f4:	e3500000 	cmp	r0, #0
8000c3f8:	ba000006 	blt	8000c418 <create+0x138>
8000c3fc:	e5952004 	ldr	r2, [r5, #4]
8000c400:	e30e193c 	movw	r1, #59708	; 0xe93c
8000c404:	e3481000 	movt	r1, #32768	; 0x8000
8000c408:	e1a00004 	mov	r0, r4
8000c40c:	ebfff827 	bl	8000a4b0 <dirlink>
8000c410:	e3500000 	cmp	r0, #0
8000c414:	aaffffdb 	bge	8000c388 <create+0xa8>
8000c418:	e30e0930 	movw	r0, #59696	; 0xe930
8000c41c:	e3480000 	movt	r0, #32768	; 0x8000
8000c420:	ebfff23e 	bl	80008d20 <panic>
8000c424:	e1a04005 	mov	r4, r5
8000c428:	eaffffc5 	b	8000c344 <create+0x64>
8000c42c:	e30e0940 	movw	r0, #59712	; 0xe940
8000c430:	e3480000 	movt	r0, #32768	; 0x8000
8000c434:	ebfff239 	bl	80008d20 <panic>
8000c438:	e30e091c 	movw	r0, #59676	; 0xe91c
8000c43c:	e3480000 	movt	r0, #32768	; 0x8000
8000c440:	ebfff236 	bl	80008d20 <panic>

8000c444 <argfd.constprop.0>:
8000c444:	e92d4030 	push	{r4, r5, lr}
8000c448:	e24dd00c 	sub	sp, sp, #12
8000c44c:	e1a04000 	mov	r4, r0
8000c450:	e1a05001 	mov	r5, r1
8000c454:	e3a00000 	mov	r0, #0
8000c458:	e28d1004 	add	r1, sp, #4
8000c45c:	ebffff30 	bl	8000c124 <argint>
8000c460:	e3500000 	cmp	r0, #0
8000c464:	ba00000f 	blt	8000c4a8 <argfd.constprop.0+0x64>
8000c468:	e59d1004 	ldr	r1, [sp, #4]
8000c46c:	e351000f 	cmp	r1, #15
8000c470:	8a00000c 	bhi	8000c4a8 <argfd.constprop.0+0x64>
8000c474:	e3012124 	movw	r2, #4388	; 0x1124
8000c478:	e281300a 	add	r3, r1, #10
8000c47c:	e3482009 	movt	r2, #32777	; 0x8009
8000c480:	e5922018 	ldr	r2, [r2, #24]
8000c484:	e7923103 	ldr	r3, [r2, r3, lsl #2]
8000c488:	e3530000 	cmp	r3, #0
8000c48c:	0a000005 	beq	8000c4a8 <argfd.constprop.0+0x64>
8000c490:	e3a00000 	mov	r0, #0
8000c494:	e3540000 	cmp	r4, #0
8000c498:	15841000 	strne	r1, [r4]
8000c49c:	e5853000 	str	r3, [r5]
8000c4a0:	e28dd00c 	add	sp, sp, #12
8000c4a4:	e8bd8030 	pop	{r4, r5, pc}
8000c4a8:	e3e00000 	mvn	r0, #0
8000c4ac:	eafffffb 	b	8000c4a0 <argfd.constprop.0+0x5c>

8000c4b0 <sys_dup>:
8000c4b0:	e92d4030 	push	{r4, r5, lr}
8000c4b4:	e24dd00c 	sub	sp, sp, #12
8000c4b8:	e3a00000 	mov	r0, #0
8000c4bc:	e28d1004 	add	r1, sp, #4
8000c4c0:	e1a04000 	mov	r4, r0
8000c4c4:	ebffffde 	bl	8000c444 <argfd.constprop.0>
8000c4c8:	e3013124 	movw	r3, #4388	; 0x1124
8000c4cc:	e3483009 	movt	r3, #32777	; 0x8009
8000c4d0:	e5931018 	ldr	r1, [r3, #24]
8000c4d4:	e2812024 	add	r2, r1, #36	; 0x24
8000c4d8:	ea000002 	b	8000c4e8 <sys_dup+0x38>
8000c4dc:	e2844001 	add	r4, r4, #1
8000c4e0:	e3540010 	cmp	r4, #16
8000c4e4:	0a000013 	beq	8000c538 <sys_dup+0x88>
8000c4e8:	e5b23004 	ldr	r3, [r2, #4]!
8000c4ec:	e3530000 	cmp	r3, #0
8000c4f0:	1afffff9 	bne	8000c4dc <sys_dup+0x2c>
8000c4f4:	e591007c 	ldr	r0, [r1, #124]	; 0x7c
8000c4f8:	e284200a 	add	r2, r4, #10
8000c4fc:	e59dc004 	ldr	ip, [sp, #4]
8000c500:	e1a05003 	mov	r5, r3
8000c504:	e3500001 	cmp	r0, #1
8000c508:	e781c102 	str	ip, [r1, r2, lsl #2]
8000c50c:	0a00000e 	beq	8000c54c <sys_dup+0x9c>
8000c510:	e28d1004 	add	r1, sp, #4
8000c514:	e3a00000 	mov	r0, #0
8000c518:	ebffffc9 	bl	8000c444 <argfd.constprop.0>
8000c51c:	e1953fa0 	orrs	r3, r5, r0, lsr #31
8000c520:	1a000011 	bne	8000c56c <sys_dup+0xbc>
8000c524:	e59d0004 	ldr	r0, [sp, #4]
8000c528:	ebfff41d 	bl	800095a4 <filedup>
8000c52c:	e1a00004 	mov	r0, r4
8000c530:	e28dd00c 	add	sp, sp, #12
8000c534:	e8bd8030 	pop	{r4, r5, pc}
8000c538:	e591307c 	ldr	r3, [r1, #124]	; 0x7c
8000c53c:	e3530001 	cmp	r3, #1
8000c540:	01a05003 	moveq	r5, r3
8000c544:	03e04000 	mvneq	r4, #0
8000c548:	1a000004 	bne	8000c560 <sys_dup+0xb0>
8000c54c:	e30e0950 	movw	r0, #59728	; 0xe950
8000c550:	e1a01004 	mov	r1, r4
8000c554:	e3480000 	movt	r0, #32768	; 0x8000
8000c558:	ebfff20d 	bl	80008d94 <cprintf>
8000c55c:	eaffffeb 	b	8000c510 <sys_dup+0x60>
8000c560:	e28d1004 	add	r1, sp, #4
8000c564:	e3a00000 	mov	r0, #0
8000c568:	ebffffb5 	bl	8000c444 <argfd.constprop.0>
8000c56c:	e3e04000 	mvn	r4, #0
8000c570:	eaffffed 	b	8000c52c <sys_dup+0x7c>

8000c574 <sys_read>:
8000c574:	e92d4070 	push	{r4, r5, r6, lr}
8000c578:	e24dd018 	sub	sp, sp, #24
8000c57c:	e28d100c 	add	r1, sp, #12
8000c580:	e28d0008 	add	r0, sp, #8
8000c584:	ebffffae 	bl	8000c444 <argfd.constprop.0>
8000c588:	e1a04000 	mov	r4, r0
8000c58c:	e28d1010 	add	r1, sp, #16
8000c590:	e3a00002 	mov	r0, #2
8000c594:	ebfffee2 	bl	8000c124 <argint>
8000c598:	e59d2010 	ldr	r2, [sp, #16]
8000c59c:	e28d1014 	add	r1, sp, #20
8000c5a0:	e1a05000 	mov	r5, r0
8000c5a4:	e3a00001 	mov	r0, #1
8000c5a8:	ebfffeef 	bl	8000c16c <argptr>
8000c5ac:	e3013124 	movw	r3, #4388	; 0x1124
8000c5b0:	e1a06000 	mov	r6, r0
8000c5b4:	e3483009 	movt	r3, #32777	; 0x8009
8000c5b8:	e5931018 	ldr	r1, [r3, #24]
8000c5bc:	e591307c 	ldr	r3, [r1, #124]	; 0x7c
8000c5c0:	e3530001 	cmp	r3, #1
8000c5c4:	0a000008 	beq	8000c5ec <sys_read+0x78>
8000c5c8:	e1844006 	orr	r4, r4, r6
8000c5cc:	e1943005 	orrs	r3, r4, r5
8000c5d0:	4a000016 	bmi	8000c630 <sys_read+0xbc>
8000c5d4:	e59d2010 	ldr	r2, [sp, #16]
8000c5d8:	e59d1014 	ldr	r1, [sp, #20]
8000c5dc:	e59d000c 	ldr	r0, [sp, #12]
8000c5e0:	ebfff43a 	bl	800096d0 <fileread>
8000c5e4:	e28dd018 	add	sp, sp, #24
8000c5e8:	e8bd8070 	pop	{r4, r5, r6, pc}
8000c5ec:	e59d3014 	ldr	r3, [sp, #20]
8000c5f0:	e59d2008 	ldr	r2, [sp, #8]
8000c5f4:	e5d30000 	ldrb	r0, [r3]
8000c5f8:	e59dc010 	ldr	ip, [sp, #16]
8000c5fc:	e5911010 	ldr	r1, [r1, #16]
8000c600:	e350000a 	cmp	r0, #10
8000c604:	0a000004 	beq	8000c61c <sys_read+0xa8>
8000c608:	e58dc000 	str	ip, [sp]
8000c60c:	e30e097c 	movw	r0, #59772	; 0xe97c
8000c610:	e3480000 	movt	r0, #32768	; 0x8000
8000c614:	ebfff1de 	bl	80008d94 <cprintf>
8000c618:	eaffffea 	b	8000c5c8 <sys_read+0x54>
8000c61c:	e30e0964 	movw	r0, #59748	; 0xe964
8000c620:	e1a0300c 	mov	r3, ip
8000c624:	e3480000 	movt	r0, #32768	; 0x8000
8000c628:	ebfff1d9 	bl	80008d94 <cprintf>
8000c62c:	eaffffe5 	b	8000c5c8 <sys_read+0x54>
8000c630:	e3e00000 	mvn	r0, #0
8000c634:	eaffffea 	b	8000c5e4 <sys_read+0x70>

8000c638 <sys_write>:
8000c638:	e92d4070 	push	{r4, r5, r6, lr}
8000c63c:	e24dd018 	sub	sp, sp, #24
8000c640:	e28d100c 	add	r1, sp, #12
8000c644:	e28d0008 	add	r0, sp, #8
8000c648:	ebffff7d 	bl	8000c444 <argfd.constprop.0>
8000c64c:	e1a04000 	mov	r4, r0
8000c650:	e28d1010 	add	r1, sp, #16
8000c654:	e3a00002 	mov	r0, #2
8000c658:	ebfffeb1 	bl	8000c124 <argint>
8000c65c:	e59d2010 	ldr	r2, [sp, #16]
8000c660:	e28d1014 	add	r1, sp, #20
8000c664:	e1a05000 	mov	r5, r0
8000c668:	e3a00001 	mov	r0, #1
8000c66c:	ebfffebe 	bl	8000c16c <argptr>
8000c670:	e3013124 	movw	r3, #4388	; 0x1124
8000c674:	e1a06000 	mov	r6, r0
8000c678:	e3483009 	movt	r3, #32777	; 0x8009
8000c67c:	e5931018 	ldr	r1, [r3, #24]
8000c680:	e591307c 	ldr	r3, [r1, #124]	; 0x7c
8000c684:	e3530001 	cmp	r3, #1
8000c688:	0a000008 	beq	8000c6b0 <sys_write+0x78>
8000c68c:	e1844006 	orr	r4, r4, r6
8000c690:	e1943005 	orrs	r3, r4, r5
8000c694:	4a000016 	bmi	8000c6f4 <sys_write+0xbc>
8000c698:	e59d2010 	ldr	r2, [sp, #16]
8000c69c:	e59d1014 	ldr	r1, [sp, #20]
8000c6a0:	e59d000c 	ldr	r0, [sp, #12]
8000c6a4:	ebfff42c 	bl	8000975c <filewrite>
8000c6a8:	e28dd018 	add	sp, sp, #24
8000c6ac:	e8bd8070 	pop	{r4, r5, r6, pc}
8000c6b0:	e59d3014 	ldr	r3, [sp, #20]
8000c6b4:	e59d2008 	ldr	r2, [sp, #8]
8000c6b8:	e5d30000 	ldrb	r0, [r3]
8000c6bc:	e59dc010 	ldr	ip, [sp, #16]
8000c6c0:	e5911010 	ldr	r1, [r1, #16]
8000c6c4:	e350000a 	cmp	r0, #10
8000c6c8:	0a000004 	beq	8000c6e0 <sys_write+0xa8>
8000c6cc:	e58dc000 	str	ip, [sp]
8000c6d0:	e30e09b0 	movw	r0, #59824	; 0xe9b0
8000c6d4:	e3480000 	movt	r0, #32768	; 0x8000
8000c6d8:	ebfff1ad 	bl	80008d94 <cprintf>
8000c6dc:	eaffffea 	b	8000c68c <sys_write+0x54>
8000c6e0:	e30e0994 	movw	r0, #59796	; 0xe994
8000c6e4:	e1a0300c 	mov	r3, ip
8000c6e8:	e3480000 	movt	r0, #32768	; 0x8000
8000c6ec:	ebfff1a8 	bl	80008d94 <cprintf>
8000c6f0:	eaffffe5 	b	8000c68c <sys_write+0x54>
8000c6f4:	e3e00000 	mvn	r0, #0
8000c6f8:	eaffffea 	b	8000c6a8 <sys_write+0x70>

8000c6fc <sys_close>:
8000c6fc:	e92d4030 	push	{r4, r5, lr}
8000c700:	e3014124 	movw	r4, #4388	; 0x1124
8000c704:	e3484009 	movt	r4, #32777	; 0x8009
8000c708:	e24dd00c 	sub	sp, sp, #12
8000c70c:	e28d1004 	add	r1, sp, #4
8000c710:	e1a0000d 	mov	r0, sp
8000c714:	ebffff4a 	bl	8000c444 <argfd.constprop.0>
8000c718:	e5943018 	ldr	r3, [r4, #24]
8000c71c:	e1a05000 	mov	r5, r0
8000c720:	e593207c 	ldr	r2, [r3, #124]	; 0x7c
8000c724:	e3520001 	cmp	r2, #1
8000c728:	0a00000b 	beq	8000c75c <sys_close+0x60>
8000c72c:	e3550000 	cmp	r5, #0
8000c730:	ba00000f 	blt	8000c774 <sys_close+0x78>
8000c734:	e59d3000 	ldr	r3, [sp]
8000c738:	e3a05000 	mov	r5, #0
8000c73c:	e5942018 	ldr	r2, [r4, #24]
8000c740:	e59d0004 	ldr	r0, [sp, #4]
8000c744:	e283300a 	add	r3, r3, #10
8000c748:	e7825103 	str	r5, [r2, r3, lsl #2]
8000c74c:	ebfff3a6 	bl	800095ec <fileclose>
8000c750:	e1a00005 	mov	r0, r5
8000c754:	e28dd00c 	add	sp, sp, #12
8000c758:	e8bd8030 	pop	{r4, r5, pc}
8000c75c:	e5931010 	ldr	r1, [r3, #16]
8000c760:	e30e09cc 	movw	r0, #59852	; 0xe9cc
8000c764:	e3480000 	movt	r0, #32768	; 0x8000
8000c768:	e59d2000 	ldr	r2, [sp]
8000c76c:	ebfff188 	bl	80008d94 <cprintf>
8000c770:	eaffffed 	b	8000c72c <sys_close+0x30>
8000c774:	e3e00000 	mvn	r0, #0
8000c778:	eafffff5 	b	8000c754 <sys_close+0x58>

8000c77c <sys_fstat>:
8000c77c:	e92d4030 	push	{r4, r5, lr}
8000c780:	e24dd014 	sub	sp, sp, #20
8000c784:	e28d1004 	add	r1, sp, #4
8000c788:	e28d000c 	add	r0, sp, #12
8000c78c:	ebffff2c 	bl	8000c444 <argfd.constprop.0>
8000c790:	e1a05000 	mov	r5, r0
8000c794:	e3a02014 	mov	r2, #20
8000c798:	e3a00001 	mov	r0, #1
8000c79c:	e28d1008 	add	r1, sp, #8
8000c7a0:	ebfffe71 	bl	8000c16c <argptr>
8000c7a4:	e3013124 	movw	r3, #4388	; 0x1124
8000c7a8:	e1a04000 	mov	r4, r0
8000c7ac:	e3483009 	movt	r3, #32777	; 0x8009
8000c7b0:	e5933018 	ldr	r3, [r3, #24]
8000c7b4:	e593207c 	ldr	r2, [r3, #124]	; 0x7c
8000c7b8:	e3520001 	cmp	r2, #1
8000c7bc:	0a000005 	beq	8000c7d8 <sys_fstat+0x5c>
8000c7c0:	e1953004 	orrs	r3, r5, r4
8000c7c4:	4a000009 	bmi	8000c7f0 <sys_fstat+0x74>
8000c7c8:	e1cd00d4 	ldrd	r0, [sp, #4]
8000c7cc:	ebfff3ae 	bl	8000968c <filestat>
8000c7d0:	e28dd014 	add	sp, sp, #20
8000c7d4:	e8bd8030 	pop	{r4, r5, pc}
8000c7d8:	e5931010 	ldr	r1, [r3, #16]
8000c7dc:	e30e09e0 	movw	r0, #59872	; 0xe9e0
8000c7e0:	e3480000 	movt	r0, #32768	; 0x8000
8000c7e4:	e59d200c 	ldr	r2, [sp, #12]
8000c7e8:	ebfff169 	bl	80008d94 <cprintf>
8000c7ec:	eafffff3 	b	8000c7c0 <sys_fstat+0x44>
8000c7f0:	e3e00000 	mvn	r0, #0
8000c7f4:	eafffff5 	b	8000c7d0 <sys_fstat+0x54>

8000c7f8 <sys_link>:
8000c7f8:	e92d4070 	push	{r4, r5, r6, lr}
8000c7fc:	e24dd018 	sub	sp, sp, #24
8000c800:	e28d1004 	add	r1, sp, #4
8000c804:	e3a00000 	mov	r0, #0
8000c808:	ebfffe6f 	bl	8000c1cc <argstr>
8000c80c:	e1a05000 	mov	r5, r0
8000c810:	e1a0100d 	mov	r1, sp
8000c814:	e3a00001 	mov	r0, #1
8000c818:	ebfffe6b 	bl	8000c1cc <argstr>
8000c81c:	e3013124 	movw	r3, #4388	; 0x1124
8000c820:	e1a04000 	mov	r4, r0
8000c824:	e3483009 	movt	r3, #32777	; 0x8009
8000c828:	e5933018 	ldr	r3, [r3, #24]
8000c82c:	e593207c 	ldr	r2, [r3, #124]	; 0x7c
8000c830:	e3520001 	cmp	r2, #1
8000c834:	0a00002b 	beq	8000c8e8 <sys_link+0xf0>
8000c838:	e1a00fa4 	lsr	r0, r4, #31
8000c83c:	e1905fa5 	orrs	r5, r0, r5, lsr #31
8000c840:	1a00003b 	bne	8000c934 <sys_link+0x13c>
8000c844:	e59d0004 	ldr	r0, [sp, #4]
8000c848:	ebfff74e 	bl	8000a588 <namei>
8000c84c:	e2504000 	subs	r4, r0, #0
8000c850:	0a000037 	beq	8000c934 <sys_link+0x13c>
8000c854:	ebfff848 	bl	8000a97c <begin_trans>
8000c858:	e1a00004 	mov	r0, r4
8000c85c:	ebfff52f 	bl	80009d20 <ilock>
8000c860:	e1d431f0 	ldrsh	r3, [r4, #16]
8000c864:	e3530001 	cmp	r3, #1
8000c868:	0a00002e 	beq	8000c928 <sys_link+0x130>
8000c86c:	e1d431b6 	ldrh	r3, [r4, #22]
8000c870:	e1a00004 	mov	r0, r4
8000c874:	e2833001 	add	r3, r3, #1
8000c878:	e1c431b6 	strh	r3, [r4, #22]
8000c87c:	ebfff4fb 	bl	80009c70 <iupdate>
8000c880:	e1a00004 	mov	r0, r4
8000c884:	ebfff567 	bl	80009e28 <iunlock>
8000c888:	e59d0000 	ldr	r0, [sp]
8000c88c:	e28d1008 	add	r1, sp, #8
8000c890:	ebfff743 	bl	8000a5a4 <nameiparent>
8000c894:	e2506000 	subs	r6, r0, #0
8000c898:	0a00001b 	beq	8000c90c <sys_link+0x114>
8000c89c:	ebfff51f 	bl	80009d20 <ilock>
8000c8a0:	e5962000 	ldr	r2, [r6]
8000c8a4:	e5943000 	ldr	r3, [r4]
8000c8a8:	e1520003 	cmp	r2, r3
8000c8ac:	1a000014 	bne	8000c904 <sys_link+0x10c>
8000c8b0:	e5942004 	ldr	r2, [r4, #4]
8000c8b4:	e28d1008 	add	r1, sp, #8
8000c8b8:	e1a00006 	mov	r0, r6
8000c8bc:	ebfff6fb 	bl	8000a4b0 <dirlink>
8000c8c0:	e3500000 	cmp	r0, #0
8000c8c4:	ba00000e 	blt	8000c904 <sys_link+0x10c>
8000c8c8:	e1a00006 	mov	r0, r6
8000c8cc:	ebfff5bf 	bl	80009fd0 <iunlockput>
8000c8d0:	e1a00004 	mov	r0, r4
8000c8d4:	ebfff56b 	bl	80009e88 <iput>
8000c8d8:	ebfff83d 	bl	8000a9d4 <commit_trans>
8000c8dc:	e1a00005 	mov	r0, r5
8000c8e0:	e28dd018 	add	sp, sp, #24
8000c8e4:	e8bd8070 	pop	{r4, r5, r6, pc}
8000c8e8:	e5931010 	ldr	r1, [r3, #16]
8000c8ec:	e30e09f4 	movw	r0, #59892	; 0xe9f4
8000c8f0:	e3480000 	movt	r0, #32768	; 0x8000
8000c8f4:	e59d3000 	ldr	r3, [sp]
8000c8f8:	e59d2004 	ldr	r2, [sp, #4]
8000c8fc:	ebfff124 	bl	80008d94 <cprintf>
8000c900:	eaffffcc 	b	8000c838 <sys_link+0x40>
8000c904:	e1a00006 	mov	r0, r6
8000c908:	ebfff5b0 	bl	80009fd0 <iunlockput>
8000c90c:	e1a00004 	mov	r0, r4
8000c910:	ebfff502 	bl	80009d20 <ilock>
8000c914:	e1d431b6 	ldrh	r3, [r4, #22]
8000c918:	e1a00004 	mov	r0, r4
8000c91c:	e2433001 	sub	r3, r3, #1
8000c920:	e1c431b6 	strh	r3, [r4, #22]
8000c924:	ebfff4d1 	bl	80009c70 <iupdate>
8000c928:	e1a00004 	mov	r0, r4
8000c92c:	ebfff5a7 	bl	80009fd0 <iunlockput>
8000c930:	ebfff827 	bl	8000a9d4 <commit_trans>
8000c934:	e3e00000 	mvn	r0, #0
8000c938:	e28dd018 	add	sp, sp, #24
8000c93c:	e8bd8070 	pop	{r4, r5, r6, pc}

8000c940 <sys_unlink>:
8000c940:	e92d40f0 	push	{r4, r5, r6, r7, lr}
8000c944:	e24dd02c 	sub	sp, sp, #44	; 0x2c
8000c948:	e1a0100d 	mov	r1, sp
8000c94c:	e3a00000 	mov	r0, #0
8000c950:	ebfffe1d 	bl	8000c1cc <argstr>
8000c954:	e1a04000 	mov	r4, r0
8000c958:	e28d1008 	add	r1, sp, #8
8000c95c:	e59d0000 	ldr	r0, [sp]
8000c960:	ebfff70f 	bl	8000a5a4 <nameiparent>
8000c964:	e3013124 	movw	r3, #4388	; 0x1124
8000c968:	e1a06000 	mov	r6, r0
8000c96c:	e3483009 	movt	r3, #32777	; 0x8009
8000c970:	e5933018 	ldr	r3, [r3, #24]
8000c974:	e593207c 	ldr	r2, [r3, #124]	; 0x7c
8000c978:	e3520001 	cmp	r2, #1
8000c97c:	0a00005c 	beq	8000caf4 <sys_unlink+0x1b4>
8000c980:	e16f3f16 	clz	r3, r6
8000c984:	e1a032a3 	lsr	r3, r3, #5
8000c988:	e1933fa4 	orrs	r3, r3, r4, lsr #31
8000c98c:	1a00005e 	bne	8000cb0c <sys_unlink+0x1cc>
8000c990:	ebfff7f9 	bl	8000a97c <begin_trans>
8000c994:	e1a00006 	mov	r0, r6
8000c998:	ebfff4e0 	bl	80009d20 <ilock>
8000c99c:	e30e192c 	movw	r1, #59692	; 0xe92c
8000c9a0:	e28d0008 	add	r0, sp, #8
8000c9a4:	e3481000 	movt	r1, #32768	; 0x8000
8000c9a8:	ebfff61b 	bl	8000a21c <namecmp>
8000c9ac:	e3500000 	cmp	r0, #0
8000c9b0:	0a000044 	beq	8000cac8 <sys_unlink+0x188>
8000c9b4:	e30e193c 	movw	r1, #59708	; 0xe93c
8000c9b8:	e28d0008 	add	r0, sp, #8
8000c9bc:	e3481000 	movt	r1, #32768	; 0x8000
8000c9c0:	ebfff615 	bl	8000a21c <namecmp>
8000c9c4:	e3500000 	cmp	r0, #0
8000c9c8:	0a00003e 	beq	8000cac8 <sys_unlink+0x188>
8000c9cc:	e28d1008 	add	r1, sp, #8
8000c9d0:	e28d2004 	add	r2, sp, #4
8000c9d4:	e1a00006 	mov	r0, r6
8000c9d8:	ebfff611 	bl	8000a224 <dirlookup>
8000c9dc:	e2504000 	subs	r4, r0, #0
8000c9e0:	0a000038 	beq	8000cac8 <sys_unlink+0x188>
8000c9e4:	ebfff4cd 	bl	80009d20 <ilock>
8000c9e8:	e1d431f6 	ldrsh	r3, [r4, #22]
8000c9ec:	e3530000 	cmp	r3, #0
8000c9f0:	da00004a 	ble	8000cb20 <sys_unlink+0x1e0>
8000c9f4:	e1d431f0 	ldrsh	r3, [r4, #16]
8000c9f8:	e3530001 	cmp	r3, #1
8000c9fc:	0a00001b 	beq	8000ca70 <sys_unlink+0x130>
8000ca00:	e28d7018 	add	r7, sp, #24
8000ca04:	e3a02010 	mov	r2, #16
8000ca08:	e3a01000 	mov	r1, #0
8000ca0c:	e1a00007 	mov	r0, r7
8000ca10:	ebfffcfa 	bl	8000be00 <memset>
8000ca14:	e59d2004 	ldr	r2, [sp, #4]
8000ca18:	e1a01007 	mov	r1, r7
8000ca1c:	e3a03010 	mov	r3, #16
8000ca20:	e1a00006 	mov	r0, r6
8000ca24:	ebfff5b4 	bl	8000a0fc <writei>
8000ca28:	e3500010 	cmp	r0, #16
8000ca2c:	1a00003e 	bne	8000cb2c <sys_unlink+0x1ec>
8000ca30:	e1d431f0 	ldrsh	r3, [r4, #16]
8000ca34:	e3530001 	cmp	r3, #1
8000ca38:	0a000027 	beq	8000cadc <sys_unlink+0x19c>
8000ca3c:	e1a00006 	mov	r0, r6
8000ca40:	ebfff562 	bl	80009fd0 <iunlockput>
8000ca44:	e1d431b6 	ldrh	r3, [r4, #22]
8000ca48:	e1a00004 	mov	r0, r4
8000ca4c:	e2433001 	sub	r3, r3, #1
8000ca50:	e1c431b6 	strh	r3, [r4, #22]
8000ca54:	ebfff485 	bl	80009c70 <iupdate>
8000ca58:	e1a00004 	mov	r0, r4
8000ca5c:	ebfff55b 	bl	80009fd0 <iunlockput>
8000ca60:	ebfff7db 	bl	8000a9d4 <commit_trans>
8000ca64:	e3a00000 	mov	r0, #0
8000ca68:	e28dd02c 	add	sp, sp, #44	; 0x2c
8000ca6c:	e8bd80f0 	pop	{r4, r5, r6, r7, pc}
8000ca70:	e5943018 	ldr	r3, [r4, #24]
8000ca74:	e3530020 	cmp	r3, #32
8000ca78:	83a05020 	movhi	r5, #32
8000ca7c:	828d7018 	addhi	r7, sp, #24
8000ca80:	8a000004 	bhi	8000ca98 <sys_unlink+0x158>
8000ca84:	eaffffdd 	b	8000ca00 <sys_unlink+0xc0>
8000ca88:	e5943018 	ldr	r3, [r4, #24]
8000ca8c:	e2855010 	add	r5, r5, #16
8000ca90:	e1550003 	cmp	r5, r3
8000ca94:	2affffda 	bcs	8000ca04 <sys_unlink+0xc4>
8000ca98:	e3a03010 	mov	r3, #16
8000ca9c:	e1a02005 	mov	r2, r5
8000caa0:	e1a01007 	mov	r1, r7
8000caa4:	e1a00004 	mov	r0, r4
8000caa8:	ebfff558 	bl	8000a010 <readi>
8000caac:	e3500010 	cmp	r0, #16
8000cab0:	1a000017 	bne	8000cb14 <sys_unlink+0x1d4>
8000cab4:	e1dd31b8 	ldrh	r3, [sp, #24]
8000cab8:	e3530000 	cmp	r3, #0
8000cabc:	0afffff1 	beq	8000ca88 <sys_unlink+0x148>
8000cac0:	e1a00004 	mov	r0, r4
8000cac4:	ebfff541 	bl	80009fd0 <iunlockput>
8000cac8:	e1a00006 	mov	r0, r6
8000cacc:	ebfff53f 	bl	80009fd0 <iunlockput>
8000cad0:	ebfff7bf 	bl	8000a9d4 <commit_trans>
8000cad4:	e3e00000 	mvn	r0, #0
8000cad8:	eaffffe2 	b	8000ca68 <sys_unlink+0x128>
8000cadc:	e1d631b6 	ldrh	r3, [r6, #22]
8000cae0:	e1a00006 	mov	r0, r6
8000cae4:	e2433001 	sub	r3, r3, #1
8000cae8:	e1c631b6 	strh	r3, [r6, #22]
8000caec:	ebfff45f 	bl	80009c70 <iupdate>
8000caf0:	eaffffd1 	b	8000ca3c <sys_unlink+0xfc>
8000caf4:	e5931010 	ldr	r1, [r3, #16]
8000caf8:	e30e0a0c 	movw	r0, #59916	; 0xea0c
8000cafc:	e3480000 	movt	r0, #32768	; 0x8000
8000cb00:	e28d2008 	add	r2, sp, #8
8000cb04:	ebfff0a2 	bl	80008d94 <cprintf>
8000cb08:	eaffff9c 	b	8000c980 <sys_unlink+0x40>
8000cb0c:	e3e00000 	mvn	r0, #0
8000cb10:	eaffffd4 	b	8000ca68 <sys_unlink+0x128>
8000cb14:	e30e0a34 	movw	r0, #59956	; 0xea34
8000cb18:	e3480000 	movt	r0, #32768	; 0x8000
8000cb1c:	ebfff07f 	bl	80008d20 <panic>
8000cb20:	e30e0a20 	movw	r0, #59936	; 0xea20
8000cb24:	e3480000 	movt	r0, #32768	; 0x8000
8000cb28:	ebfff07c 	bl	80008d20 <panic>
8000cb2c:	e30e0a48 	movw	r0, #59976	; 0xea48
8000cb30:	e3480000 	movt	r0, #32768	; 0x8000
8000cb34:	ebfff079 	bl	80008d20 <panic>

8000cb38 <sys_open>:
8000cb38:	e92d40f0 	push	{r4, r5, r6, r7, lr}
8000cb3c:	e24dd00c 	sub	sp, sp, #12
8000cb40:	e1a0100d 	mov	r1, sp
8000cb44:	e3015124 	movw	r5, #4388	; 0x1124
8000cb48:	e3485009 	movt	r5, #32777	; 0x8009
8000cb4c:	e3a00000 	mov	r0, #0
8000cb50:	ebfffd9d 	bl	8000c1cc <argstr>
8000cb54:	e1a06000 	mov	r6, r0
8000cb58:	e28d1004 	add	r1, sp, #4
8000cb5c:	e3a00001 	mov	r0, #1
8000cb60:	ebfffd6f 	bl	8000c124 <argint>
8000cb64:	e5953018 	ldr	r3, [r5, #24]
8000cb68:	e1a04000 	mov	r4, r0
8000cb6c:	e593207c 	ldr	r2, [r3, #124]	; 0x7c
8000cb70:	e3520001 	cmp	r2, #1
8000cb74:	0a000038 	beq	8000cc5c <sys_open+0x124>
8000cb78:	e1a00fa4 	lsr	r0, r4, #31
8000cb7c:	e1906fa6 	orrs	r6, r0, r6, lsr #31
8000cb80:	1a000033 	bne	8000cc54 <sys_open+0x11c>
8000cb84:	e59d3004 	ldr	r3, [sp, #4]
8000cb88:	e3130c02 	tst	r3, #512	; 0x200
8000cb8c:	1a000026 	bne	8000cc2c <sys_open+0xf4>
8000cb90:	e59d0000 	ldr	r0, [sp]
8000cb94:	ebfff67b 	bl	8000a588 <namei>
8000cb98:	e2507000 	subs	r7, r0, #0
8000cb9c:	0a00002c 	beq	8000cc54 <sys_open+0x11c>
8000cba0:	ebfff45e 	bl	80009d20 <ilock>
8000cba4:	e1d731f0 	ldrsh	r3, [r7, #16]
8000cba8:	e3530001 	cmp	r3, #1
8000cbac:	0a000030 	beq	8000cc74 <sys_open+0x13c>
8000cbb0:	ebfff260 	bl	80009538 <filealloc>
8000cbb4:	e2506000 	subs	r6, r0, #0
8000cbb8:	0a000030 	beq	8000cc80 <sys_open+0x148>
8000cbbc:	e5952018 	ldr	r2, [r5, #24]
8000cbc0:	e3a04000 	mov	r4, #0
8000cbc4:	e2823024 	add	r3, r2, #36	; 0x24
8000cbc8:	ea000002 	b	8000cbd8 <sys_open+0xa0>
8000cbcc:	e2844001 	add	r4, r4, #1
8000cbd0:	e3540010 	cmp	r4, #16
8000cbd4:	0a00002d 	beq	8000cc90 <sys_open+0x158>
8000cbd8:	e5b35004 	ldr	r5, [r3, #4]!
8000cbdc:	e3550000 	cmp	r5, #0
8000cbe0:	1afffff9 	bne	8000cbcc <sys_open+0x94>
8000cbe4:	e284300a 	add	r3, r4, #10
8000cbe8:	e1a00007 	mov	r0, r7
8000cbec:	e7826103 	str	r6, [r2, r3, lsl #2]
8000cbf0:	ebfff48c 	bl	80009e28 <iunlock>
8000cbf4:	e59d3004 	ldr	r3, [sp, #4]
8000cbf8:	e3a01002 	mov	r1, #2
8000cbfc:	e5867010 	str	r7, [r6, #16]
8000cc00:	e1e02003 	mvn	r2, r3
8000cc04:	e2133003 	ands	r3, r3, #3
8000cc08:	e5865014 	str	r5, [r6, #20]
8000cc0c:	e2022001 	and	r2, r2, #1
8000cc10:	e5c62008 	strb	r2, [r6, #8]
8000cc14:	13a03001 	movne	r3, #1
8000cc18:	e5c63009 	strb	r3, [r6, #9]
8000cc1c:	e5861000 	str	r1, [r6]
8000cc20:	e1a00004 	mov	r0, r4
8000cc24:	e28dd00c 	add	sp, sp, #12
8000cc28:	e8bd80f0 	pop	{r4, r5, r6, r7, pc}
8000cc2c:	ebfff752 	bl	8000a97c <begin_trans>
8000cc30:	e59d0000 	ldr	r0, [sp]
8000cc34:	e1a03006 	mov	r3, r6
8000cc38:	e1a02006 	mov	r2, r6
8000cc3c:	e3a01002 	mov	r1, #2
8000cc40:	ebfffda6 	bl	8000c2e0 <create>
8000cc44:	e1a07000 	mov	r7, r0
8000cc48:	ebfff761 	bl	8000a9d4 <commit_trans>
8000cc4c:	e3570000 	cmp	r7, #0
8000cc50:	1affffd6 	bne	8000cbb0 <sys_open+0x78>
8000cc54:	e3e04000 	mvn	r4, #0
8000cc58:	eafffff0 	b	8000cc20 <sys_open+0xe8>
8000cc5c:	e5931010 	ldr	r1, [r3, #16]
8000cc60:	e30e0a58 	movw	r0, #59992	; 0xea58
8000cc64:	e3480000 	movt	r0, #32768	; 0x8000
8000cc68:	e1cd20d0 	ldrd	r2, [sp]
8000cc6c:	ebfff048 	bl	80008d94 <cprintf>
8000cc70:	eaffffc0 	b	8000cb78 <sys_open+0x40>
8000cc74:	e59d3004 	ldr	r3, [sp, #4]
8000cc78:	e3530000 	cmp	r3, #0
8000cc7c:	0affffcb 	beq	8000cbb0 <sys_open+0x78>
8000cc80:	e1a00007 	mov	r0, r7
8000cc84:	e3e04000 	mvn	r4, #0
8000cc88:	ebfff4d0 	bl	80009fd0 <iunlockput>
8000cc8c:	eaffffe3 	b	8000cc20 <sys_open+0xe8>
8000cc90:	e1a00006 	mov	r0, r6
8000cc94:	ebfff254 	bl	800095ec <fileclose>
8000cc98:	eafffff8 	b	8000cc80 <sys_open+0x148>

8000cc9c <sys_mkdir>:
8000cc9c:	e52de004 	push	{lr}		; (str lr, [sp, #-4]!)
8000cca0:	e24dd00c 	sub	sp, sp, #12
8000cca4:	e3a00000 	mov	r0, #0
8000cca8:	e28d1004 	add	r1, sp, #4
8000ccac:	ebfffd46 	bl	8000c1cc <argstr>
8000ccb0:	e3013124 	movw	r3, #4388	; 0x1124
8000ccb4:	e3483009 	movt	r3, #32777	; 0x8009
8000ccb8:	e5933018 	ldr	r3, [r3, #24]
8000ccbc:	e593207c 	ldr	r2, [r3, #124]	; 0x7c
8000ccc0:	e3520001 	cmp	r2, #1
8000ccc4:	0a000011 	beq	8000cd10 <sys_mkdir+0x74>
8000ccc8:	ebfff72b 	bl	8000a97c <begin_trans>
8000cccc:	e28d1004 	add	r1, sp, #4
8000ccd0:	e3a00000 	mov	r0, #0
8000ccd4:	ebfffd3c 	bl	8000c1cc <argstr>
8000ccd8:	e3500000 	cmp	r0, #0
8000ccdc:	ba000011 	blt	8000cd28 <sys_mkdir+0x8c>
8000cce0:	e59d0004 	ldr	r0, [sp, #4]
8000cce4:	e3a03000 	mov	r3, #0
8000cce8:	e1a02003 	mov	r2, r3
8000ccec:	e3a01001 	mov	r1, #1
8000ccf0:	ebfffd7a 	bl	8000c2e0 <create>
8000ccf4:	e3500000 	cmp	r0, #0
8000ccf8:	0a00000a 	beq	8000cd28 <sys_mkdir+0x8c>
8000ccfc:	ebfff4b3 	bl	80009fd0 <iunlockput>
8000cd00:	ebfff733 	bl	8000a9d4 <commit_trans>
8000cd04:	e3a00000 	mov	r0, #0
8000cd08:	e28dd00c 	add	sp, sp, #12
8000cd0c:	e49df004 	pop	{pc}		; (ldr pc, [sp], #4)
8000cd10:	e5931010 	ldr	r1, [r3, #16]
8000cd14:	e30e0a70 	movw	r0, #60016	; 0xea70
8000cd18:	e3480000 	movt	r0, #32768	; 0x8000
8000cd1c:	e59d2004 	ldr	r2, [sp, #4]
8000cd20:	ebfff01b 	bl	80008d94 <cprintf>
8000cd24:	eaffffe7 	b	8000ccc8 <sys_mkdir+0x2c>
8000cd28:	ebfff729 	bl	8000a9d4 <commit_trans>
8000cd2c:	e3e00000 	mvn	r0, #0
8000cd30:	eafffff4 	b	8000cd08 <sys_mkdir+0x6c>

8000cd34 <sys_mknod>:
8000cd34:	e92d4070 	push	{r4, r5, r6, lr}
8000cd38:	e3014124 	movw	r4, #4388	; 0x1124
8000cd3c:	e3484009 	movt	r4, #32777	; 0x8009
8000cd40:	e24dd018 	sub	sp, sp, #24
8000cd44:	e28d600c 	add	r6, sp, #12
8000cd48:	e5943018 	ldr	r3, [r4, #24]
8000cd4c:	e593507c 	ldr	r5, [r3, #124]	; 0x7c
8000cd50:	e3550001 	cmp	r5, #1
8000cd54:	0a00001b 	beq	8000cdc8 <sys_mknod+0x94>
8000cd58:	ebfff707 	bl	8000a97c <begin_trans>
8000cd5c:	e1a01006 	mov	r1, r6
8000cd60:	e3a00000 	mov	r0, #0
8000cd64:	ebfffd18 	bl	8000c1cc <argstr>
8000cd68:	e3500000 	cmp	r0, #0
8000cd6c:	ba000028 	blt	8000ce14 <sys_mknod+0xe0>
8000cd70:	e28d1010 	add	r1, sp, #16
8000cd74:	e3a00001 	mov	r0, #1
8000cd78:	ebfffce9 	bl	8000c124 <argint>
8000cd7c:	e3500000 	cmp	r0, #0
8000cd80:	ba000023 	blt	8000ce14 <sys_mknod+0xe0>
8000cd84:	e28d1014 	add	r1, sp, #20
8000cd88:	e3a00002 	mov	r0, #2
8000cd8c:	ebfffce4 	bl	8000c124 <argint>
8000cd90:	e3500000 	cmp	r0, #0
8000cd94:	ba00001e 	blt	8000ce14 <sys_mknod+0xe0>
8000cd98:	e1dd31f4 	ldrsh	r3, [sp, #20]
8000cd9c:	e3a01003 	mov	r1, #3
8000cda0:	e1dd21f0 	ldrsh	r2, [sp, #16]
8000cda4:	e59d000c 	ldr	r0, [sp, #12]
8000cda8:	ebfffd4c 	bl	8000c2e0 <create>
8000cdac:	e3500000 	cmp	r0, #0
8000cdb0:	0a000017 	beq	8000ce14 <sys_mknod+0xe0>
8000cdb4:	ebfff485 	bl	80009fd0 <iunlockput>
8000cdb8:	ebfff705 	bl	8000a9d4 <commit_trans>
8000cdbc:	e3a00000 	mov	r0, #0
8000cdc0:	e28dd018 	add	sp, sp, #24
8000cdc4:	e8bd8070 	pop	{r4, r5, r6, pc}
8000cdc8:	e1a01006 	mov	r1, r6
8000cdcc:	e3a00000 	mov	r0, #0
8000cdd0:	ebfffcfd 	bl	8000c1cc <argstr>
8000cdd4:	e28d1010 	add	r1, sp, #16
8000cdd8:	e1a00005 	mov	r0, r5
8000cddc:	ebfffcd0 	bl	8000c124 <argint>
8000cde0:	e28d1014 	add	r1, sp, #20
8000cde4:	e3a00002 	mov	r0, #2
8000cde8:	ebfffccd 	bl	8000c124 <argint>
8000cdec:	e5942018 	ldr	r2, [r4, #24]
8000cdf0:	e30e0a84 	movw	r0, #60036	; 0xea84
8000cdf4:	e59dc014 	ldr	ip, [sp, #20]
8000cdf8:	e5921010 	ldr	r1, [r2, #16]
8000cdfc:	e59d3010 	ldr	r3, [sp, #16]
8000ce00:	e59d200c 	ldr	r2, [sp, #12]
8000ce04:	e3480000 	movt	r0, #32768	; 0x8000
8000ce08:	e58dc000 	str	ip, [sp]
8000ce0c:	ebffefe0 	bl	80008d94 <cprintf>
8000ce10:	eaffffd0 	b	8000cd58 <sys_mknod+0x24>
8000ce14:	ebfff6ee 	bl	8000a9d4 <commit_trans>
8000ce18:	e3e00000 	mvn	r0, #0
8000ce1c:	eaffffe7 	b	8000cdc0 <sys_mknod+0x8c>

8000ce20 <sys_chdir>:
8000ce20:	e92d4070 	push	{r4, r5, r6, lr}
8000ce24:	e24dd008 	sub	sp, sp, #8
8000ce28:	e28d1004 	add	r1, sp, #4
8000ce2c:	e3015124 	movw	r5, #4388	; 0x1124
8000ce30:	e3485009 	movt	r5, #32777	; 0x8009
8000ce34:	e3a00000 	mov	r0, #0
8000ce38:	ebfffce3 	bl	8000c1cc <argstr>
8000ce3c:	e1a04000 	mov	r4, r0
8000ce40:	e59d0004 	ldr	r0, [sp, #4]
8000ce44:	ebfff5cf 	bl	8000a588 <namei>
8000ce48:	e5953018 	ldr	r3, [r5, #24]
8000ce4c:	e1a06000 	mov	r6, r0
8000ce50:	e593207c 	ldr	r2, [r3, #124]	; 0x7c
8000ce54:	e3520001 	cmp	r2, #1
8000ce58:	0a000012 	beq	8000cea8 <sys_chdir+0x88>
8000ce5c:	e16f0f16 	clz	r0, r6
8000ce60:	e1a002a0 	lsr	r0, r0, #5
8000ce64:	e1904fa4 	orrs	r4, r0, r4, lsr #31
8000ce68:	1a000014 	bne	8000cec0 <sys_chdir+0xa0>
8000ce6c:	e1a00006 	mov	r0, r6
8000ce70:	ebfff3aa 	bl	80009d20 <ilock>
8000ce74:	e1d631f0 	ldrsh	r3, [r6, #16]
8000ce78:	e1a00006 	mov	r0, r6
8000ce7c:	e3530001 	cmp	r3, #1
8000ce80:	1a000010 	bne	8000cec8 <sys_chdir+0xa8>
8000ce84:	ebfff3e7 	bl	80009e28 <iunlock>
8000ce88:	e5953018 	ldr	r3, [r5, #24]
8000ce8c:	e5930068 	ldr	r0, [r3, #104]	; 0x68
8000ce90:	ebfff3fc 	bl	80009e88 <iput>
8000ce94:	e5953018 	ldr	r3, [r5, #24]
8000ce98:	e1a00004 	mov	r0, r4
8000ce9c:	e5836068 	str	r6, [r3, #104]	; 0x68
8000cea0:	e28dd008 	add	sp, sp, #8
8000cea4:	e8bd8070 	pop	{r4, r5, r6, pc}
8000cea8:	e5931010 	ldr	r1, [r3, #16]
8000ceac:	e30e0aa0 	movw	r0, #60064	; 0xeaa0
8000ceb0:	e3480000 	movt	r0, #32768	; 0x8000
8000ceb4:	e59d2004 	ldr	r2, [sp, #4]
8000ceb8:	ebffefb5 	bl	80008d94 <cprintf>
8000cebc:	eaffffe6 	b	8000ce5c <sys_chdir+0x3c>
8000cec0:	e3e00000 	mvn	r0, #0
8000cec4:	eafffff5 	b	8000cea0 <sys_chdir+0x80>
8000cec8:	ebfff440 	bl	80009fd0 <iunlockput>
8000cecc:	e3e00000 	mvn	r0, #0
8000ced0:	eafffff2 	b	8000cea0 <sys_chdir+0x80>

8000ced4 <sys_exec>:
8000ced4:	e92d4030 	push	{r4, r5, lr}
8000ced8:	e24dd094 	sub	sp, sp, #148	; 0x94
8000cedc:	e28d1004 	add	r1, sp, #4
8000cee0:	e3a00000 	mov	r0, #0
8000cee4:	ebfffcb8 	bl	8000c1cc <argstr>
8000cee8:	e1a05000 	mov	r5, r0
8000ceec:	e28d1008 	add	r1, sp, #8
8000cef0:	e3a00001 	mov	r0, #1
8000cef4:	ebfffc8a 	bl	8000c124 <argint>
8000cef8:	e3013124 	movw	r3, #4388	; 0x1124
8000cefc:	e1a04000 	mov	r4, r0
8000cf00:	e3483009 	movt	r3, #32777	; 0x8009
8000cf04:	e5933018 	ldr	r3, [r3, #24]
8000cf08:	e593207c 	ldr	r2, [r3, #124]	; 0x7c
8000cf0c:	e3520001 	cmp	r2, #1
8000cf10:	0a000025 	beq	8000cfac <sys_exec+0xd8>
8000cf14:	e1a00fa4 	lsr	r0, r4, #31
8000cf18:	e1901fa5 	orrs	r1, r0, r5, lsr #31
8000cf1c:	1a000017 	bne	8000cf80 <sys_exec+0xac>
8000cf20:	e28d0010 	add	r0, sp, #16
8000cf24:	e3a02080 	mov	r2, #128	; 0x80
8000cf28:	e1a04001 	mov	r4, r1
8000cf2c:	e1a05001 	mov	r5, r1
8000cf30:	ebfffbb2 	bl	8000be00 <memset>
8000cf34:	ea000008 	b	8000cf5c <sys_exec+0x88>
8000cf38:	e59d300c 	ldr	r3, [sp, #12]
8000cf3c:	e2530000 	subs	r0, r3, #0
8000cf40:	0a000011 	beq	8000cf8c <sys_exec+0xb8>
8000cf44:	e2855001 	add	r5, r5, #1
8000cf48:	ebfffc5b 	bl	8000c0bc <fetchstr>
8000cf4c:	e3500000 	cmp	r0, #0
8000cf50:	ba00000a 	blt	8000cf80 <sys_exec+0xac>
8000cf54:	e3550020 	cmp	r5, #32
8000cf58:	0a000008 	beq	8000cf80 <sys_exec+0xac>
8000cf5c:	e59d0008 	ldr	r0, [sp, #8]
8000cf60:	e28d100c 	add	r1, sp, #12
8000cf64:	e0840000 	add	r0, r4, r0
8000cf68:	ebfffc44 	bl	8000c080 <fetchint>
8000cf6c:	e3500000 	cmp	r0, #0
8000cf70:	e28d3010 	add	r3, sp, #16
8000cf74:	e0831004 	add	r1, r3, r4
8000cf78:	e2844004 	add	r4, r4, #4
8000cf7c:	aaffffed 	bge	8000cf38 <sys_exec+0x64>
8000cf80:	e3e00000 	mvn	r0, #0
8000cf84:	e28dd094 	add	sp, sp, #148	; 0x94
8000cf88:	e8bd8030 	pop	{r4, r5, pc}
8000cf8c:	e59d0004 	ldr	r0, [sp, #4]
8000cf90:	e28d2090 	add	r2, sp, #144	; 0x90
8000cf94:	e0825105 	add	r5, r2, r5, lsl #2
8000cf98:	e28d1010 	add	r1, sp, #16
8000cf9c:	e5053080 	str	r3, [r5, #-128]	; 0xffffff80
8000cfa0:	ebfff0a7 	bl	80009244 <exec>
8000cfa4:	e28dd094 	add	sp, sp, #148	; 0x94
8000cfa8:	e8bd8030 	pop	{r4, r5, pc}
8000cfac:	e5931010 	ldr	r1, [r3, #16]
8000cfb0:	e30e0ab4 	movw	r0, #60084	; 0xeab4
8000cfb4:	e3480000 	movt	r0, #32768	; 0x8000
8000cfb8:	e28d3010 	add	r3, sp, #16
8000cfbc:	e59d2004 	ldr	r2, [sp, #4]
8000cfc0:	ebffef73 	bl	80008d94 <cprintf>
8000cfc4:	eaffffd2 	b	8000cf14 <sys_exec+0x40>

8000cfc8 <sys_pipe>:
8000cfc8:	e92d4070 	push	{r4, r5, r6, lr}
8000cfcc:	e24dd010 	sub	sp, sp, #16
8000cfd0:	e3a02008 	mov	r2, #8
8000cfd4:	e28d1004 	add	r1, sp, #4
8000cfd8:	e3015124 	movw	r5, #4388	; 0x1124
8000cfdc:	e3a00000 	mov	r0, #0
8000cfe0:	e3485009 	movt	r5, #32777	; 0x8009
8000cfe4:	ebfffc60 	bl	8000c16c <argptr>
8000cfe8:	e1a06000 	mov	r6, r0
8000cfec:	e28d100c 	add	r1, sp, #12
8000cff0:	e28d0008 	add	r0, sp, #8
8000cff4:	ebfff81f 	bl	8000b078 <pipealloc>
8000cff8:	e5953018 	ldr	r3, [r5, #24]
8000cffc:	e1a04000 	mov	r4, r0
8000d000:	e593207c 	ldr	r2, [r3, #124]	; 0x7c
8000d004:	e3520001 	cmp	r2, #1
8000d008:	0a00001d 	beq	8000d084 <sys_pipe+0xbc>
8000d00c:	e1a00fa4 	lsr	r0, r4, #31
8000d010:	e1902fa6 	orrs	r2, r0, r6, lsr #31
8000d014:	1a000021 	bne	8000d0a0 <sys_pipe+0xd8>
8000d018:	e595e018 	ldr	lr, [r5, #24]
8000d01c:	e59d4008 	ldr	r4, [sp, #8]
8000d020:	e28e1024 	add	r1, lr, #36	; 0x24
8000d024:	e1a0c001 	mov	ip, r1
8000d028:	ea000002 	b	8000d038 <sys_pipe+0x70>
8000d02c:	e2822001 	add	r2, r2, #1
8000d030:	e3520010 	cmp	r2, #16
8000d034:	0a00001d 	beq	8000d0b0 <sys_pipe+0xe8>
8000d038:	e5bc3004 	ldr	r3, [ip, #4]!
8000d03c:	e3530000 	cmp	r3, #0
8000d040:	1afffff9 	bne	8000d02c <sys_pipe+0x64>
8000d044:	e08ec102 	add	ip, lr, r2, lsl #2
8000d048:	e59d500c 	ldr	r5, [sp, #12]
8000d04c:	e58c4028 	str	r4, [ip, #40]	; 0x28
8000d050:	ea000002 	b	8000d060 <sys_pipe+0x98>
8000d054:	e2833001 	add	r3, r3, #1
8000d058:	e3530010 	cmp	r3, #16
8000d05c:	0a000011 	beq	8000d0a8 <sys_pipe+0xe0>
8000d060:	e5b10004 	ldr	r0, [r1, #4]!
8000d064:	e3500000 	cmp	r0, #0
8000d068:	1afffff9 	bne	8000d054 <sys_pipe+0x8c>
8000d06c:	e59d1004 	ldr	r1, [sp, #4]
8000d070:	e283c00a 	add	ip, r3, #10
8000d074:	e78e510c 	str	r5, [lr, ip, lsl #2]
8000d078:	e1c120f0 	strd	r2, [r1]
8000d07c:	e28dd010 	add	sp, sp, #16
8000d080:	e8bd8070 	pop	{r4, r5, r6, pc}
8000d084:	e5931010 	ldr	r1, [r3, #16]
8000d088:	e30e0acc 	movw	r0, #60108	; 0xeacc
8000d08c:	e3480000 	movt	r0, #32768	; 0x8000
8000d090:	e3a03000 	mov	r3, #0
8000d094:	e1a02003 	mov	r2, r3
8000d098:	ebffef3d 	bl	80008d94 <cprintf>
8000d09c:	eaffffda 	b	8000d00c <sys_pipe+0x44>
8000d0a0:	e3e00000 	mvn	r0, #0
8000d0a4:	eafffff4 	b	8000d07c <sys_pipe+0xb4>
8000d0a8:	e3a03000 	mov	r3, #0
8000d0ac:	e58c3028 	str	r3, [ip, #40]	; 0x28
8000d0b0:	e1a00004 	mov	r0, r4
8000d0b4:	ebfff14c 	bl	800095ec <fileclose>
8000d0b8:	e59d000c 	ldr	r0, [sp, #12]
8000d0bc:	ebfff14a 	bl	800095ec <fileclose>
8000d0c0:	e3e00000 	mvn	r0, #0
8000d0c4:	eaffffec 	b	8000d07c <sys_pipe+0xb4>

8000d0c8 <sys_fork>:
8000d0c8:	e3013124 	movw	r3, #4388	; 0x1124
8000d0cc:	e3483009 	movt	r3, #32777	; 0x8009
8000d0d0:	e5933018 	ldr	r3, [r3, #24]
8000d0d4:	e593207c 	ldr	r2, [r3, #124]	; 0x7c
8000d0d8:	e3520001 	cmp	r2, #1
8000d0dc:	0a000000 	beq	8000d0e4 <sys_fork+0x1c>
8000d0e0:	eafff946 	b	8000b600 <fork>
8000d0e4:	e5931010 	ldr	r1, [r3, #16]
8000d0e8:	e30e0ae4 	movw	r0, #60132	; 0xeae4
8000d0ec:	e92d4010 	push	{r4, lr}
8000d0f0:	e3480000 	movt	r0, #32768	; 0x8000
8000d0f4:	ebffef26 	bl	80008d94 <cprintf>
8000d0f8:	e8bd4010 	pop	{r4, lr}
8000d0fc:	eafff93f 	b	8000b600 <fork>

8000d100 <sys_exit>:
8000d100:	e3013124 	movw	r3, #4388	; 0x1124
8000d104:	e3483009 	movt	r3, #32777	; 0x8009
8000d108:	e92d4010 	push	{r4, lr}
8000d10c:	e5933018 	ldr	r3, [r3, #24]
8000d110:	e593207c 	ldr	r2, [r3, #124]	; 0x7c
8000d114:	e3520001 	cmp	r2, #1
8000d118:	0a000002 	beq	8000d128 <sys_exit+0x28>
8000d11c:	ebfff9c3 	bl	8000b830 <exit>
8000d120:	e3a00000 	mov	r0, #0
8000d124:	e8bd8010 	pop	{r4, pc}
8000d128:	e5931010 	ldr	r1, [r3, #16]
8000d12c:	e30e0af4 	movw	r0, #60148	; 0xeaf4
8000d130:	e3480000 	movt	r0, #32768	; 0x8000
8000d134:	ebffef16 	bl	80008d94 <cprintf>
8000d138:	eafffff7 	b	8000d11c <sys_exit+0x1c>

8000d13c <sys_wait>:
8000d13c:	e3013124 	movw	r3, #4388	; 0x1124
8000d140:	e3483009 	movt	r3, #32777	; 0x8009
8000d144:	e5933018 	ldr	r3, [r3, #24]
8000d148:	e593207c 	ldr	r2, [r3, #124]	; 0x7c
8000d14c:	e3520001 	cmp	r2, #1
8000d150:	0a000000 	beq	8000d158 <sys_wait+0x1c>
8000d154:	eafffa40 	b	8000ba5c <wait>
8000d158:	e5931010 	ldr	r1, [r3, #16]
8000d15c:	e30e0b04 	movw	r0, #60164	; 0xeb04
8000d160:	e92d4010 	push	{r4, lr}
8000d164:	e3480000 	movt	r0, #32768	; 0x8000
8000d168:	ebffef09 	bl	80008d94 <cprintf>
8000d16c:	e8bd4010 	pop	{r4, lr}
8000d170:	eafffa39 	b	8000ba5c <wait>

8000d174 <sys_kill>:
8000d174:	e92d4010 	push	{r4, lr}
8000d178:	e24dd008 	sub	sp, sp, #8
8000d17c:	e28d1004 	add	r1, sp, #4
8000d180:	e3a00000 	mov	r0, #0
8000d184:	ebfffbe6 	bl	8000c124 <argint>
8000d188:	e3013124 	movw	r3, #4388	; 0x1124
8000d18c:	e1a04000 	mov	r4, r0
8000d190:	e3483009 	movt	r3, #32777	; 0x8009
8000d194:	e5933018 	ldr	r3, [r3, #24]
8000d198:	e593207c 	ldr	r2, [r3, #124]	; 0x7c
8000d19c:	e3520001 	cmp	r2, #1
8000d1a0:	0a000005 	beq	8000d1bc <sys_kill+0x48>
8000d1a4:	e3540000 	cmp	r4, #0
8000d1a8:	ba000009 	blt	8000d1d4 <sys_kill+0x60>
8000d1ac:	e59d0004 	ldr	r0, [sp, #4]
8000d1b0:	ebfffa75 	bl	8000bb8c <kill>
8000d1b4:	e28dd008 	add	sp, sp, #8
8000d1b8:	e8bd8010 	pop	{r4, pc}
8000d1bc:	e5931010 	ldr	r1, [r3, #16]
8000d1c0:	e30e0b14 	movw	r0, #60180	; 0xeb14
8000d1c4:	e3480000 	movt	r0, #32768	; 0x8000
8000d1c8:	e59d2004 	ldr	r2, [sp, #4]
8000d1cc:	ebffeef0 	bl	80008d94 <cprintf>
8000d1d0:	eafffff3 	b	8000d1a4 <sys_kill+0x30>
8000d1d4:	e3e00000 	mvn	r0, #0
8000d1d8:	eafffff5 	b	8000d1b4 <sys_kill+0x40>

8000d1dc <sys_getpid>:
8000d1dc:	e92d4010 	push	{r4, lr}
8000d1e0:	e3014124 	movw	r4, #4388	; 0x1124
8000d1e4:	e3484009 	movt	r4, #32777	; 0x8009
8000d1e8:	e5943018 	ldr	r3, [r4, #24]
8000d1ec:	e593207c 	ldr	r2, [r3, #124]	; 0x7c
8000d1f0:	e3520001 	cmp	r2, #1
8000d1f4:	0a000001 	beq	8000d200 <sys_getpid+0x24>
8000d1f8:	e5930010 	ldr	r0, [r3, #16]
8000d1fc:	e8bd8010 	pop	{r4, pc}
8000d200:	e5931010 	ldr	r1, [r3, #16]
8000d204:	e30e0b28 	movw	r0, #60200	; 0xeb28
8000d208:	e3480000 	movt	r0, #32768	; 0x8000
8000d20c:	ebffeee0 	bl	80008d94 <cprintf>
8000d210:	e5943018 	ldr	r3, [r4, #24]
8000d214:	e5930010 	ldr	r0, [r3, #16]
8000d218:	e8bd8010 	pop	{r4, pc}

8000d21c <sys_sbrk>:
8000d21c:	e92d4030 	push	{r4, r5, lr}
8000d220:	e3014124 	movw	r4, #4388	; 0x1124
8000d224:	e3484009 	movt	r4, #32777	; 0x8009
8000d228:	e24dd00c 	sub	sp, sp, #12
8000d22c:	e28d1004 	add	r1, sp, #4
8000d230:	e3a00000 	mov	r0, #0
8000d234:	ebfffbba 	bl	8000c124 <argint>
8000d238:	e5943018 	ldr	r3, [r4, #24]
8000d23c:	e1a05000 	mov	r5, r0
8000d240:	e593207c 	ldr	r2, [r3, #124]	; 0x7c
8000d244:	e3520001 	cmp	r2, #1
8000d248:	0a00000a 	beq	8000d278 <sys_sbrk+0x5c>
8000d24c:	e3550000 	cmp	r5, #0
8000d250:	ba00000e 	blt	8000d290 <sys_sbrk+0x74>
8000d254:	e5943018 	ldr	r3, [r4, #24]
8000d258:	e59d0004 	ldr	r0, [sp, #4]
8000d25c:	e5934000 	ldr	r4, [r3]
8000d260:	ebfff8cc 	bl	8000b598 <growproc>
8000d264:	e3500000 	cmp	r0, #0
8000d268:	ba000008 	blt	8000d290 <sys_sbrk+0x74>
8000d26c:	e1a00004 	mov	r0, r4
8000d270:	e28dd00c 	add	sp, sp, #12
8000d274:	e8bd8030 	pop	{r4, r5, pc}
8000d278:	e5931010 	ldr	r1, [r3, #16]
8000d27c:	e30e0b3c 	movw	r0, #60220	; 0xeb3c
8000d280:	e3480000 	movt	r0, #32768	; 0x8000
8000d284:	e59d2004 	ldr	r2, [sp, #4]
8000d288:	ebffeec1 	bl	80008d94 <cprintf>
8000d28c:	eaffffee 	b	8000d24c <sys_sbrk+0x30>
8000d290:	e3e04000 	mvn	r4, #0
8000d294:	eafffff4 	b	8000d26c <sys_sbrk+0x50>

8000d298 <sys_sleep>:
8000d298:	e92d41f0 	push	{r4, r5, r6, r7, r8, lr}
8000d29c:	e3040ccc 	movw	r0, #19660	; 0x4ccc
8000d2a0:	e3480009 	movt	r0, #32777	; 0x8009
8000d2a4:	e3044d00 	movw	r4, #19712	; 0x4d00
8000d2a8:	e3484009 	movt	r4, #32777	; 0x8009
8000d2ac:	e3018124 	movw	r8, #4388	; 0x1124
8000d2b0:	e3488009 	movt	r8, #32777	; 0x8009
8000d2b4:	e24dd008 	sub	sp, sp, #8
8000d2b8:	ebfffa78 	bl	8000bca0 <acquire>
8000d2bc:	e5947000 	ldr	r7, [r4]
8000d2c0:	e28d1004 	add	r1, sp, #4
8000d2c4:	e3a00000 	mov	r0, #0
8000d2c8:	ebfffb95 	bl	8000c124 <argint>
8000d2cc:	e5983018 	ldr	r3, [r8, #24]
8000d2d0:	e1a05000 	mov	r5, r0
8000d2d4:	e593207c 	ldr	r2, [r3, #124]	; 0x7c
8000d2d8:	e3520001 	cmp	r2, #1
8000d2dc:	0a000027 	beq	8000d380 <sys_sleep+0xe8>
8000d2e0:	e3550000 	cmp	r5, #0
8000d2e4:	ba00002b 	blt	8000d398 <sys_sleep+0x100>
8000d2e8:	e5943000 	ldr	r3, [r4]
8000d2ec:	e59d2004 	ldr	r2, [sp, #4]
8000d2f0:	e0433007 	sub	r3, r3, r7
8000d2f4:	e1530002 	cmp	r3, r2
8000d2f8:	2a000014 	bcs	8000d350 <sys_sleep+0xb8>
8000d2fc:	e5983018 	ldr	r3, [r8, #24]
8000d300:	e5933024 	ldr	r3, [r3, #36]	; 0x24
8000d304:	e3530000 	cmp	r3, #0
8000d308:	1a000016 	bne	8000d368 <sys_sleep+0xd0>
8000d30c:	e3046ccc 	movw	r6, #19660	; 0x4ccc
8000d310:	e3045d00 	movw	r5, #19712	; 0x4d00
8000d314:	e3486009 	movt	r6, #32777	; 0x8009
8000d318:	e3485009 	movt	r5, #32777	; 0x8009
8000d31c:	ea000003 	b	8000d330 <sys_sleep+0x98>
8000d320:	e5983018 	ldr	r3, [r8, #24]
8000d324:	e5933024 	ldr	r3, [r3, #36]	; 0x24
8000d328:	e3530000 	cmp	r3, #0
8000d32c:	1a00000d 	bne	8000d368 <sys_sleep+0xd0>
8000d330:	e1a01006 	mov	r1, r6
8000d334:	e1a00005 	mov	r0, r5
8000d338:	ebfff99a 	bl	8000b9a8 <sleep>
8000d33c:	e5943000 	ldr	r3, [r4]
8000d340:	e59d2004 	ldr	r2, [sp, #4]
8000d344:	e0433007 	sub	r3, r3, r7
8000d348:	e1530002 	cmp	r3, r2
8000d34c:	3afffff3 	bcc	8000d320 <sys_sleep+0x88>
8000d350:	e3040ccc 	movw	r0, #19660	; 0x4ccc
8000d354:	e3480009 	movt	r0, #32777	; 0x8009
8000d358:	ebfffa86 	bl	8000bd78 <release>
8000d35c:	e3a00000 	mov	r0, #0
8000d360:	e28dd008 	add	sp, sp, #8
8000d364:	e8bd81f0 	pop	{r4, r5, r6, r7, r8, pc}
8000d368:	e3040ccc 	movw	r0, #19660	; 0x4ccc
8000d36c:	e3480009 	movt	r0, #32777	; 0x8009
8000d370:	ebfffa80 	bl	8000bd78 <release>
8000d374:	e3e00000 	mvn	r0, #0
8000d378:	e28dd008 	add	sp, sp, #8
8000d37c:	e8bd81f0 	pop	{r4, r5, r6, r7, r8, pc}
8000d380:	e5931010 	ldr	r1, [r3, #16]
8000d384:	e30e0b50 	movw	r0, #60240	; 0xeb50
8000d388:	e3480000 	movt	r0, #32768	; 0x8000
8000d38c:	e1a02007 	mov	r2, r7
8000d390:	ebffee7f 	bl	80008d94 <cprintf>
8000d394:	eaffffd1 	b	8000d2e0 <sys_sleep+0x48>
8000d398:	e3e00000 	mvn	r0, #0
8000d39c:	eaffffef 	b	8000d360 <sys_sleep+0xc8>

8000d3a0 <sys_uptime>:
8000d3a0:	e92d4010 	push	{r4, lr}
8000d3a4:	e3044ccc 	movw	r4, #19660	; 0x4ccc
8000d3a8:	e3484009 	movt	r4, #32777	; 0x8009
8000d3ac:	e1a00004 	mov	r0, r4
8000d3b0:	ebfffa3a 	bl	8000bca0 <acquire>
8000d3b4:	e3043d00 	movw	r3, #19712	; 0x4d00
8000d3b8:	e1a00004 	mov	r0, r4
8000d3bc:	e3483009 	movt	r3, #32777	; 0x8009
8000d3c0:	e5934000 	ldr	r4, [r3]
8000d3c4:	ebfffa6b 	bl	8000bd78 <release>
8000d3c8:	e1a00004 	mov	r0, r4
8000d3cc:	e8bd8010 	pop	{r4, pc}

8000d3d0 <sys_memfree>:
8000d3d0:	e3013124 	movw	r3, #4388	; 0x1124
8000d3d4:	e3483009 	movt	r3, #32777	; 0x8009
8000d3d8:	e5933018 	ldr	r3, [r3, #24]
8000d3dc:	e593207c 	ldr	r2, [r3, #124]	; 0x7c
8000d3e0:	e3520001 	cmp	r2, #1
8000d3e4:	0a000000 	beq	8000d3ec <sys_memfree+0x1c>
8000d3e8:	eafff4f2 	b	8000a7b8 <kmemfree>
8000d3ec:	e5931010 	ldr	r1, [r3, #16]
8000d3f0:	e30e0b64 	movw	r0, #60260	; 0xeb64
8000d3f4:	e92d4010 	push	{r4, lr}
8000d3f8:	e3480000 	movt	r0, #32768	; 0x8000
8000d3fc:	ebffee64 	bl	80008d94 <cprintf>
8000d400:	e8bd4010 	pop	{r4, lr}
8000d404:	eafff4eb 	b	8000a7b8 <kmemfree>

8000d408 <sys_trace>:
8000d408:	e3013124 	movw	r3, #4388	; 0x1124
8000d40c:	e3483009 	movt	r3, #32777	; 0x8009
8000d410:	e5933018 	ldr	r3, [r3, #24]
8000d414:	e593207c 	ldr	r2, [r3, #124]	; 0x7c
8000d418:	e3520001 	cmp	r2, #1
8000d41c:	0a000000 	beq	8000d424 <sys_trace+0x1c>
8000d420:	eafff9f9 	b	8000bc0c <trace>
8000d424:	e5931010 	ldr	r1, [r3, #16]
8000d428:	e30e0b78 	movw	r0, #60280	; 0xeb78
8000d42c:	e92d4010 	push	{r4, lr}
8000d430:	e3480000 	movt	r0, #32768	; 0x8000
8000d434:	ebffee56 	bl	80008d94 <cprintf>
8000d438:	e8bd4010 	pop	{r4, lr}
8000d43c:	eafff9f2 	b	8000bc0c <trace>

8000d440 <enabletimer3irq>:
8000d440:	e3a03cb2 	mov	r3, #45568	; 0xb200
8000d444:	e34d3000 	movt	r3, #53248	; 0xd000
8000d448:	e5932010 	ldr	r2, [r3, #16]
8000d44c:	e3822008 	orr	r2, r2, #8
8000d450:	e5832010 	str	r2, [r3, #16]
8000d454:	e12fff1e 	bx	lr

8000d458 <timer3init>:
8000d458:	e3a02cb2 	mov	r2, #45568	; 0xb200
8000d45c:	e3033004 	movw	r3, #12292	; 0x3004
8000d460:	e34d2000 	movt	r2, #53248	; 0xd000
8000d464:	e34d3000 	movt	r3, #53248	; 0xd000
8000d468:	e5921010 	ldr	r1, [r2, #16]
8000d46c:	e3811008 	orr	r1, r1, #8
8000d470:	e5821010 	str	r1, [r2, #16]
8000d474:	e5933000 	ldr	r3, [r3]
8000d478:	e3032018 	movw	r2, #12312	; 0x3018
8000d47c:	e2833c27 	add	r3, r3, #9984	; 0x2700
8000d480:	e34d2000 	movt	r2, #53248	; 0xd000
8000d484:	e2833010 	add	r3, r3, #16
8000d488:	e5823000 	str	r3, [r2]
8000d48c:	e3043d00 	movw	r3, #19712	; 0x4d00
8000d490:	e3a02000 	mov	r2, #0
8000d494:	e3483009 	movt	r3, #32777	; 0x8009
8000d498:	e5832000 	str	r2, [r3]
8000d49c:	e12fff1e 	bx	lr

8000d4a0 <timer3intr>:
8000d4a0:	e3a03a03 	mov	r3, #12288	; 0x3000
8000d4a4:	e3a02008 	mov	r2, #8
8000d4a8:	e92d4010 	push	{r4, lr}
8000d4ac:	e34d3000 	movt	r3, #53248	; 0xd000
8000d4b0:	e5832000 	str	r2, [r3]
8000d4b4:	e3043d00 	movw	r3, #19712	; 0x4d00
8000d4b8:	e3483009 	movt	r3, #32777	; 0x8009
8000d4bc:	e1a00003 	mov	r0, r3
8000d4c0:	e5932000 	ldr	r2, [r3]
8000d4c4:	e2822001 	add	r2, r2, #1
8000d4c8:	e5832000 	str	r2, [r3]
8000d4cc:	ebfff998 	bl	8000bb34 <wakeup>
8000d4d0:	e3033004 	movw	r3, #12292	; 0x3004
8000d4d4:	e34d3000 	movt	r3, #53248	; 0xd000
8000d4d8:	e5933000 	ldr	r3, [r3]
8000d4dc:	e3032018 	movw	r2, #12312	; 0x3018
8000d4e0:	e2833c27 	add	r3, r3, #9984	; 0x2700
8000d4e4:	e34d2000 	movt	r2, #53248	; 0xd000
8000d4e8:	e2833010 	add	r3, r3, #16
8000d4ec:	e5823000 	str	r3, [r2]
8000d4f0:	e8bd8010 	pop	{r4, pc}

8000d4f4 <delay>:
8000d4f4:	e92d4070 	push	{r4, r5, r6, lr}
8000d4f8:	e2506000 	subs	r6, r0, #0
8000d4fc:	08bd8070 	popeq	{r4, r5, r6, pc}
8000d500:	ebffeb5f 	bl	80008284 <getsystemtime>
8000d504:	e0904006 	adds	r4, r0, r6
8000d508:	e2a15000 	adc	r5, r1, #0
8000d50c:	ebffeb5c 	bl	80008284 <getsystemtime>
8000d510:	e1510005 	cmp	r1, r5
8000d514:	01500004 	cmpeq	r0, r4
8000d518:	1afffffb 	bne	8000d50c <delay+0x18>
8000d51c:	e8bd8070 	pop	{r4, r5, r6, pc}

8000d520 <enable_intrs>:
8000d520:	e3a03cb2 	mov	r3, #45568	; 0xb200
8000d524:	e34d3000 	movt	r3, #53248	; 0xd000
8000d528:	e5931010 	ldr	r1, [r3, #16]
8000d52c:	e5932018 	ldr	r2, [r3, #24]
8000d530:	e3811202 	orr	r1, r1, #536870912	; 0x20000000
8000d534:	e5831010 	str	r1, [r3, #16]
8000d538:	e3822001 	orr	r2, r2, #1
8000d53c:	e5832018 	str	r2, [r3, #24]
8000d540:	e12fff1e 	bx	lr

8000d544 <disable_intrs>:
8000d544:	e3a03cb2 	mov	r3, #45568	; 0xb200
8000d548:	e3e02000 	mvn	r2, #0
8000d54c:	e34d3000 	movt	r3, #53248	; 0xd000
8000d550:	e3a01000 	mov	r1, #0
8000d554:	e583100c 	str	r1, [r3, #12]
8000d558:	e583201c 	str	r2, [r3, #28]
8000d55c:	e5832020 	str	r2, [r3, #32]
8000d560:	e5832024 	str	r2, [r3, #36]	; 0x24
8000d564:	e12fff1e 	bx	lr

8000d568 <tvinit>:
8000d568:	e30812a0 	movw	r1, #33440	; 0x82a0
8000d56c:	e3a00000 	mov	r0, #0
8000d570:	e92d4010 	push	{r4, lr}
8000d574:	e3a02040 	mov	r2, #64	; 0x40
8000d578:	e3481000 	movt	r1, #32768	; 0x8000
8000d57c:	e34f0fff 	movt	r0, #65535	; 0xffff
8000d580:	ebfffa4c 	bl	8000beb8 <memmove>
8000d584:	ebffeb28 	bl	8000822c <dsb_barrier>
8000d588:	ebffeb2d 	bl	80008244 <flush_idcache>
8000d58c:	ebfff46e 	bl	8000a74c <kalloc>
8000d590:	e1a04000 	mov	r4, r0
8000d594:	e3a02a01 	mov	r2, #4096	; 0x1000
8000d598:	e3a01000 	mov	r1, #0
8000d59c:	ebfffa17 	bl	8000be00 <memset>
8000d5a0:	e2840a01 	add	r0, r4, #4096	; 0x1000
8000d5a4:	e3a010d1 	mov	r1, #209	; 0xd1
8000d5a8:	ebffebb2 	bl	80008478 <set_mode_sp>
8000d5ac:	ebfff466 	bl	8000a74c <kalloc>
8000d5b0:	e1a04000 	mov	r4, r0
8000d5b4:	e3a02a01 	mov	r2, #4096	; 0x1000
8000d5b8:	e3a01000 	mov	r1, #0
8000d5bc:	ebfffa0f 	bl	8000be00 <memset>
8000d5c0:	e2840a01 	add	r0, r4, #4096	; 0x1000
8000d5c4:	e3a010d2 	mov	r1, #210	; 0xd2
8000d5c8:	ebffebaa 	bl	80008478 <set_mode_sp>
8000d5cc:	ebfff45e 	bl	8000a74c <kalloc>
8000d5d0:	e1a04000 	mov	r4, r0
8000d5d4:	e3a02a01 	mov	r2, #4096	; 0x1000
8000d5d8:	e3a01000 	mov	r1, #0
8000d5dc:	ebfffa07 	bl	8000be00 <memset>
8000d5e0:	e2840a01 	add	r0, r4, #4096	; 0x1000
8000d5e4:	e3a010db 	mov	r1, #219	; 0xdb
8000d5e8:	ebffeba2 	bl	80008478 <set_mode_sp>
8000d5ec:	ebfff456 	bl	8000a74c <kalloc>
8000d5f0:	e1a04000 	mov	r4, r0
8000d5f4:	e3a02a01 	mov	r2, #4096	; 0x1000
8000d5f8:	e3a01000 	mov	r1, #0
8000d5fc:	ebfff9ff 	bl	8000be00 <memset>
8000d600:	e2840a01 	add	r0, r4, #4096	; 0x1000
8000d604:	e3a010d7 	mov	r1, #215	; 0xd7
8000d608:	ebffeb9a 	bl	80008478 <set_mode_sp>
8000d60c:	ebfff44e 	bl	8000a74c <kalloc>
8000d610:	e1a04000 	mov	r4, r0
8000d614:	e3a02a01 	mov	r2, #4096	; 0x1000
8000d618:	e3a01000 	mov	r1, #0
8000d61c:	ebfff9f7 	bl	8000be00 <memset>
8000d620:	e2840a01 	add	r0, r4, #4096	; 0x1000
8000d624:	e3a010d6 	mov	r1, #214	; 0xd6
8000d628:	ebffeb92 	bl	80008478 <set_mode_sp>
8000d62c:	ebfff446 	bl	8000a74c <kalloc>
8000d630:	e1a04000 	mov	r4, r0
8000d634:	e3a02a01 	mov	r2, #4096	; 0x1000
8000d638:	e3a01000 	mov	r1, #0
8000d63c:	ebfff9ef 	bl	8000be00 <memset>
8000d640:	e2840a01 	add	r0, r4, #4096	; 0x1000
8000d644:	e3a010df 	mov	r1, #223	; 0xdf
8000d648:	ebffeb8a 	bl	80008478 <set_mode_sp>
8000d64c:	e8bd4010 	pop	{r4, lr}
8000d650:	eaffeaf5 	b	8000822c <dsb_barrier>

8000d654 <trap_oops>:
8000d654:	e92d4010 	push	{r4, lr}
8000d658:	e1a04000 	mov	r4, r0
8000d65c:	e24dd010 	sub	sp, sp, #16
8000d660:	e30e0b8c 	movw	r0, #60300	; 0xeb8c
8000d664:	e594e044 	ldr	lr, [r4, #68]	; 0x44
8000d668:	e594c048 	ldr	ip, [r4, #72]	; 0x48
8000d66c:	e5943000 	ldr	r3, [r4]
8000d670:	e594204c 	ldr	r2, [r4, #76]	; 0x4c
8000d674:	e5941040 	ldr	r1, [r4, #64]	; 0x40
8000d678:	e98d5000 	stmib	sp, {ip, lr}
8000d67c:	e594c050 	ldr	ip, [r4, #80]	; 0x50
8000d680:	e3480000 	movt	r0, #32768	; 0x8000
8000d684:	e58dc000 	str	ip, [sp]
8000d688:	ebffedc1 	bl	80008d94 <cprintf>
8000d68c:	e594e018 	ldr	lr, [r4, #24]
8000d690:	e30e0bc4 	movw	r0, #60356	; 0xebc4
8000d694:	e594c014 	ldr	ip, [r4, #20]
8000d698:	e9940006 	ldmib	r4, {r1, r2}
8000d69c:	e594300c 	ldr	r3, [r4, #12]
8000d6a0:	e98d5000 	stmib	sp, {ip, lr}
8000d6a4:	e594c010 	ldr	ip, [r4, #16]
8000d6a8:	e3480000 	movt	r0, #32768	; 0x8000
8000d6ac:	e58dc000 	str	ip, [sp]
8000d6b0:	ebffedb7 	bl	80008d94 <cprintf>
8000d6b4:	e594e034 	ldr	lr, [r4, #52]	; 0x34
8000d6b8:	e30e0c08 	movw	r0, #60424	; 0xec08
8000d6bc:	e594c030 	ldr	ip, [r4, #48]	; 0x30
8000d6c0:	e5943024 	ldr	r3, [r4, #36]	; 0x24
8000d6c4:	e5942020 	ldr	r2, [r4, #32]
8000d6c8:	e594101c 	ldr	r1, [r4, #28]
8000d6cc:	e58de00c 	str	lr, [sp, #12]
8000d6d0:	e58dc008 	str	ip, [sp, #8]
8000d6d4:	e594e02c 	ldr	lr, [r4, #44]	; 0x2c
8000d6d8:	e594c028 	ldr	ip, [r4, #40]	; 0x28
8000d6dc:	e3480000 	movt	r0, #32768	; 0x8000
8000d6e0:	e88d5000 	stm	sp, {ip, lr}
8000d6e4:	ebffedaa 	bl	80008d94 <cprintf>
8000d6e8:	e28dd010 	add	sp, sp, #16
8000d6ec:	e8bd8010 	pop	{r4, pc}

8000d6f0 <handle_irq>:
8000d6f0:	e92d4010 	push	{r4, lr}
8000d6f4:	e3a04cb2 	mov	r4, #45568	; 0xb200
8000d6f8:	e34d4000 	movt	r4, #53248	; 0xd000
8000d6fc:	e5943004 	ldr	r3, [r4, #4]
8000d700:	e3530000 	cmp	r3, #0
8000d704:	0a000007 	beq	8000d728 <handle_irq+0x38>
8000d708:	e3130008 	tst	r3, #8
8000d70c:	0a000001 	beq	8000d718 <handle_irq+0x28>
8000d710:	ebffff62 	bl	8000d4a0 <timer3intr>
8000d714:	e5943004 	ldr	r3, [r4, #4]
8000d718:	e3130202 	tst	r3, #536870912	; 0x20000000
8000d71c:	0afffff7 	beq	8000d700 <handle_irq+0x10>
8000d720:	eb0000de 	bl	8000daa0 <miniuartintr>
8000d724:	eafffff4 	b	8000d6fc <handle_irq+0xc>
8000d728:	e3a02cb2 	mov	r2, #45568	; 0xb200
8000d72c:	e34d2000 	movt	r2, #53248	; 0xd000
8000d730:	e5923008 	ldr	r3, [r2, #8]
8000d734:	e3530000 	cmp	r3, #0
8000d738:	1afffffc 	bne	8000d730 <handle_irq+0x40>
8000d73c:	e5923000 	ldr	r3, [r2]
8000d740:	e3530000 	cmp	r3, #0
8000d744:	1afffff9 	bne	8000d730 <handle_irq+0x40>
8000d748:	e8bd8010 	pop	{r4, pc}

8000d74c <trap>:
8000d74c:	e590c040 	ldr	ip, [r0, #64]	; 0x40
8000d750:	e92d41f0 	push	{r4, r5, r6, r7, r8, lr}
8000d754:	e35c0040 	cmp	ip, #64	; 0x40
8000d758:	e24dd018 	sub	sp, sp, #24
8000d75c:	e1a06000 	mov	r6, r0
8000d760:	0a000051 	beq	8000d8ac <trap+0x160>
8000d764:	e35c0080 	cmp	ip, #128	; 0x80
8000d768:	1a000031 	bne	8000d834 <trap+0xe8>
8000d76c:	e3a04cb2 	mov	r4, #45568	; 0xb200
8000d770:	e3a05000 	mov	r5, #0
8000d774:	e34d4000 	movt	r4, #53248	; 0xd000
8000d778:	e5943004 	ldr	r3, [r4, #4]
8000d77c:	e3530000 	cmp	r3, #0
8000d780:	0a00000a 	beq	8000d7b0 <trap+0x64>
8000d784:	e3130008 	tst	r3, #8
8000d788:	0a000002 	beq	8000d798 <trap+0x4c>
8000d78c:	e3a05001 	mov	r5, #1
8000d790:	ebffff42 	bl	8000d4a0 <timer3intr>
8000d794:	e5943004 	ldr	r3, [r4, #4]
8000d798:	e3130202 	tst	r3, #536870912	; 0x20000000
8000d79c:	0afffff6 	beq	8000d77c <trap+0x30>
8000d7a0:	eb0000be 	bl	8000daa0 <miniuartintr>
8000d7a4:	e5943004 	ldr	r3, [r4, #4]
8000d7a8:	e3530000 	cmp	r3, #0
8000d7ac:	1afffff4 	bne	8000d784 <trap+0x38>
8000d7b0:	e3a02cb2 	mov	r2, #45568	; 0xb200
8000d7b4:	e34d2000 	movt	r2, #53248	; 0xd000
8000d7b8:	e5923008 	ldr	r3, [r2, #8]
8000d7bc:	e3530000 	cmp	r3, #0
8000d7c0:	1afffffc 	bne	8000d7b8 <trap+0x6c>
8000d7c4:	e5923000 	ldr	r3, [r2]
8000d7c8:	e3530000 	cmp	r3, #0
8000d7cc:	1afffff9 	bne	8000d7b8 <trap+0x6c>
8000d7d0:	e3014124 	movw	r4, #4388	; 0x1124
8000d7d4:	e3484009 	movt	r4, #32777	; 0x8009
8000d7d8:	e5943018 	ldr	r3, [r4, #24]
8000d7dc:	e3530000 	cmp	r3, #0
8000d7e0:	0a00002f 	beq	8000d8a4 <trap+0x158>
8000d7e4:	e5932024 	ldr	r2, [r3, #36]	; 0x24
8000d7e8:	e3520000 	cmp	r2, #0
8000d7ec:	1a00004e 	bne	8000d92c <trap+0x1e0>
8000d7f0:	e593300c 	ldr	r3, [r3, #12]
8000d7f4:	e3530004 	cmp	r3, #4
8000d7f8:	13a05000 	movne	r5, #0
8000d7fc:	02055001 	andeq	r5, r5, #1
8000d800:	e3550000 	cmp	r5, #0
8000d804:	0a000026 	beq	8000d8a4 <trap+0x158>
8000d808:	ebfff858 	bl	8000b970 <yield>
8000d80c:	e5943018 	ldr	r3, [r4, #24]
8000d810:	e5933024 	ldr	r3, [r3, #36]	; 0x24
8000d814:	e3530000 	cmp	r3, #0
8000d818:	0a000021 	beq	8000d8a4 <trap+0x158>
8000d81c:	e596304c 	ldr	r3, [r6, #76]	; 0x4c
8000d820:	e313000f 	tst	r3, #15
8000d824:	1a00001e 	bne	8000d8a4 <trap+0x158>
8000d828:	e28dd018 	add	sp, sp, #24
8000d82c:	e8bd41f0 	pop	{r4, r5, r6, r7, r8, lr}
8000d830:	eafff7fe 	b	8000b830 <exit>
8000d834:	e590e04c 	ldr	lr, [r0, #76]	; 0x4c
8000d838:	e3014124 	movw	r4, #4388	; 0x1124
8000d83c:	e3484009 	movt	r4, #32777	; 0x8009
8000d840:	e5907050 	ldr	r7, [r0, #80]	; 0x50
8000d844:	e5942018 	ldr	r2, [r4, #24]
8000d848:	e5d45000 	ldrb	r5, [r4]
8000d84c:	e5908048 	ldr	r8, [r0, #72]	; 0x48
8000d850:	e3520000 	cmp	r2, #0
8000d854:	e5903044 	ldr	r3, [r0, #68]	; 0x44
8000d858:	0a000027 	beq	8000d8fc <trap+0x1b0>
8000d85c:	e31e000f 	tst	lr, #15
8000d860:	1a000025 	bne	8000d8fc <trap+0x1b0>
8000d864:	e5921010 	ldr	r1, [r2, #16]
8000d868:	e30e0c9c 	movw	r0, #60572	; 0xec9c
8000d86c:	e58d3010 	str	r3, [sp, #16]
8000d870:	e282206c 	add	r2, r2, #108	; 0x6c
8000d874:	e58d800c 	str	r8, [sp, #12]
8000d878:	e1a0300c 	mov	r3, ip
8000d87c:	e58de008 	str	lr, [sp, #8]
8000d880:	e88d00a0 	stm	sp, {r5, r7}
8000d884:	e3480000 	movt	r0, #32768	; 0x8000
8000d888:	ebffed41 	bl	80008d94 <cprintf>
8000d88c:	e596304c 	ldr	r3, [r6, #76]	; 0x4c
8000d890:	e3a01001 	mov	r1, #1
8000d894:	e5942018 	ldr	r2, [r4, #24]
8000d898:	e313000f 	tst	r3, #15
8000d89c:	e5821024 	str	r1, [r2, #36]	; 0x24
8000d8a0:	0a000012 	beq	8000d8f0 <trap+0x1a4>
8000d8a4:	e28dd018 	add	sp, sp, #24
8000d8a8:	e8bd81f0 	pop	{r4, r5, r6, r7, r8, pc}
8000d8ac:	e3014124 	movw	r4, #4388	; 0x1124
8000d8b0:	e3484009 	movt	r4, #32777	; 0x8009
8000d8b4:	e5943018 	ldr	r3, [r4, #24]
8000d8b8:	e5932024 	ldr	r2, [r3, #36]	; 0x24
8000d8bc:	e3520000 	cmp	r2, #0
8000d8c0:	1a000007 	bne	8000d8e4 <trap+0x198>
8000d8c4:	e5836018 	str	r6, [r3, #24]
8000d8c8:	ebfffa61 	bl	8000c254 <syscall>
8000d8cc:	e5943018 	ldr	r3, [r4, #24]
8000d8d0:	e5933024 	ldr	r3, [r3, #36]	; 0x24
8000d8d4:	e3530000 	cmp	r3, #0
8000d8d8:	1affffd2 	bne	8000d828 <trap+0xdc>
8000d8dc:	e28dd018 	add	sp, sp, #24
8000d8e0:	e8bd81f0 	pop	{r4, r5, r6, r7, r8, pc}
8000d8e4:	ebfff7d1 	bl	8000b830 <exit>
8000d8e8:	e5943018 	ldr	r3, [r4, #24]
8000d8ec:	eafffff4 	b	8000d8c4 <trap+0x178>
8000d8f0:	ebfff7ce 	bl	8000b830 <exit>
8000d8f4:	e5943018 	ldr	r3, [r4, #24]
8000d8f8:	eaffffc4 	b	8000d810 <trap+0xc4>
8000d8fc:	e58d3008 	str	r3, [sp, #8]
8000d900:	e30e0c54 	movw	r0, #60500	; 0xec54
8000d904:	e3480000 	movt	r0, #32768	; 0x8000
8000d908:	e1a03007 	mov	r3, r7
8000d90c:	e58d8004 	str	r8, [sp, #4]
8000d910:	e1a02005 	mov	r2, r5
8000d914:	e58de000 	str	lr, [sp]
8000d918:	e1a0100c 	mov	r1, ip
8000d91c:	ebffed1c 	bl	80008d94 <cprintf>
8000d920:	e30e0c94 	movw	r0, #60564	; 0xec94
8000d924:	e3480000 	movt	r0, #32768	; 0x8000
8000d928:	ebffecfc 	bl	80008d20 <panic>
8000d92c:	e596204c 	ldr	r2, [r6, #76]	; 0x4c
8000d930:	e312000f 	tst	r2, #15
8000d934:	1affffad 	bne	8000d7f0 <trap+0xa4>
8000d938:	ebfff7bc 	bl	8000b830 <exit>
8000d93c:	e5943018 	ldr	r3, [r4, #24]
8000d940:	e593200c 	ldr	r2, [r3, #12]
8000d944:	e3520004 	cmp	r2, #4
8000d948:	13a05000 	movne	r5, #0
8000d94c:	02055001 	andeq	r5, r5, #1
8000d950:	e3550000 	cmp	r5, #0
8000d954:	1affffab 	bne	8000d808 <trap+0xbc>
8000d958:	eaffffac 	b	8000d810 <trap+0xc4>

8000d95c <uartgetc>:
8000d95c:	e3053054 	movw	r3, #20564	; 0x5054
8000d960:	e34d3021 	movt	r3, #53281	; 0xd021
8000d964:	e5933000 	ldr	r3, [r3]
8000d968:	e3130001 	tst	r3, #1
8000d96c:	0a000003 	beq	8000d980 <uartgetc+0x24>
8000d970:	e3050040 	movw	r0, #20544	; 0x5040
8000d974:	e34d0021 	movt	r0, #53281	; 0xd021
8000d978:	e5900000 	ldr	r0, [r0]
8000d97c:	e12fff1e 	bx	lr
8000d980:	e3e00000 	mvn	r0, #0
8000d984:	e12fff1e 	bx	lr

8000d988 <setgpiofunc.part.0>:
8000d988:	e350000a 	cmp	r0, #10
8000d98c:	e3a03000 	mov	r3, #0
8000d990:	e52de004 	push	{lr}		; (str lr, [sp, #-4]!)
8000d994:	934d3020 	movtls	r3, #53280	; 0xd020
8000d998:	9a000006 	bls	8000d9b8 <setgpiofunc.part.0+0x30>
8000d99c:	e240000a 	sub	r0, r0, #10
8000d9a0:	e2833001 	add	r3, r3, #1
8000d9a4:	e350000a 	cmp	r0, #10
8000d9a8:	8afffffb 	bhi	8000d99c <setgpiofunc.part.0+0x14>
8000d9ac:	e1a03103 	lsl	r3, r3, #2
8000d9b0:	e283320d 	add	r3, r3, #-805306368	; 0xd0000000
8000d9b4:	e2833602 	add	r3, r3, #2097152	; 0x200000
8000d9b8:	e593c000 	ldr	ip, [r3]
8000d9bc:	e1a02080 	lsl	r2, r0, #1
8000d9c0:	e3a0e007 	mov	lr, #7
8000d9c4:	e0820000 	add	r0, r2, r0
8000d9c8:	e1cc201e 	bic	r2, ip, lr, lsl r0
8000d9cc:	e5832000 	str	r2, [r3]
8000d9d0:	e1822011 	orr	r2, r2, r1, lsl r0
8000d9d4:	e5832000 	str	r2, [r3]
8000d9d8:	e49df004 	pop	{pc}		; (ldr pc, [sp], #4)

8000d9dc <setgpioval>:
8000d9dc:	e3500035 	cmp	r0, #53	; 0x35
8000d9e0:	812fff1e 	bxhi	lr
8000d9e4:	e350001f 	cmp	r0, #31
8000d9e8:	e3a03001 	mov	r3, #1
8000d9ec:	83a0c02c 	movhi	ip, #44	; 0x2c
8000d9f0:	93a0c028 	movls	ip, #40	; 0x28
8000d9f4:	834dc020 	movthi	ip, #53280	; 0xd020
8000d9f8:	83a02020 	movhi	r2, #32
8000d9fc:	934dc020 	movtls	ip, #53280	; 0xd020
8000da00:	8200001f 	andhi	r0, r0, #31
8000da04:	93a0201c 	movls	r2, #28
8000da08:	e3510000 	cmp	r1, #0
8000da0c:	e34d2020 	movt	r2, #53280	; 0xd020
8000da10:	e1a00013 	lsl	r0, r3, r0
8000da14:	0a000001 	beq	8000da20 <setgpioval+0x44>
8000da18:	e5820000 	str	r0, [r2]
8000da1c:	e12fff1e 	bx	lr
8000da20:	e58c0000 	str	r0, [ip]
8000da24:	e12fff1e 	bx	lr

8000da28 <setgpiofunc>:
8000da28:	e3500035 	cmp	r0, #53	; 0x35
8000da2c:	812fff1e 	bxhi	lr
8000da30:	eaffffd4 	b	8000d988 <setgpiofunc.part.0>

8000da34 <uartputc>:
8000da34:	e350000a 	cmp	r0, #10
8000da38:	0a000008 	beq	8000da60 <uartputc+0x2c>
8000da3c:	e3052054 	movw	r2, #20564	; 0x5054
8000da40:	e34d2021 	movt	r2, #53281	; 0xd021
8000da44:	e5923000 	ldr	r3, [r2]
8000da48:	e3130020 	tst	r3, #32
8000da4c:	0afffffc 	beq	8000da44 <uartputc+0x10>
8000da50:	e3053040 	movw	r3, #20544	; 0x5040
8000da54:	e34d3021 	movt	r3, #53281	; 0xd021
8000da58:	e5830000 	str	r0, [r3]
8000da5c:	e12fff1e 	bx	lr
8000da60:	e3052054 	movw	r2, #20564	; 0x5054
8000da64:	e34d2021 	movt	r2, #53281	; 0xd021
8000da68:	e5923000 	ldr	r3, [r2]
8000da6c:	e3130020 	tst	r3, #32
8000da70:	0afffffc 	beq	8000da68 <uartputc+0x34>
8000da74:	e3053040 	movw	r3, #20544	; 0x5040
8000da78:	e3a0200d 	mov	r2, #13
8000da7c:	e34d3021 	movt	r3, #53281	; 0xd021
8000da80:	e5832000 	str	r2, [r3]
8000da84:	eaffffec 	b	8000da3c <uartputc+0x8>

8000da88 <enableirqminiuart>:
8000da88:	e3a03cb2 	mov	r3, #45568	; 0xb200
8000da8c:	e34d3000 	movt	r3, #53248	; 0xd000
8000da90:	e5932010 	ldr	r2, [r3, #16]
8000da94:	e3822202 	orr	r2, r2, #536870912	; 0x20000000
8000da98:	e5832010 	str	r2, [r3, #16]
8000da9c:	e12fff1e 	bx	lr

8000daa0 <miniuartintr>:
8000daa0:	e30d095c 	movw	r0, #55644	; 0xd95c
8000daa4:	e3480000 	movt	r0, #32768	; 0x8000
8000daa8:	eaffed48 	b	80008fd0 <consoleintr>

8000daac <uartinit>:
8000daac:	e3053004 	movw	r3, #20484	; 0x5004
8000dab0:	e3a02001 	mov	r2, #1
8000dab4:	e92d41f0 	push	{r4, r5, r6, r7, r8, lr}
8000dab8:	e34d3021 	movt	r3, #53281	; 0xd021
8000dabc:	e5832000 	str	r2, [r3]
8000dac0:	e3055060 	movw	r5, #20576	; 0x5060
8000dac4:	e3a04000 	mov	r4, #0
8000dac8:	e34d5021 	movt	r5, #53281	; 0xd021
8000dacc:	e5854000 	str	r4, [r5]
8000dad0:	e305304c 	movw	r3, #20556	; 0x504c
8000dad4:	e3a07003 	mov	r7, #3
8000dad8:	e34d3021 	movt	r3, #53281	; 0xd021
8000dadc:	e5837000 	str	r7, [r3]
8000dae0:	e3053050 	movw	r3, #20560	; 0x5050
8000dae4:	e34d3021 	movt	r3, #53281	; 0xd021
8000dae8:	e5834000 	str	r4, [r3]
8000daec:	e3053044 	movw	r3, #20548	; 0x5044
8000daf0:	e34d3021 	movt	r3, #53281	; 0xd021
8000daf4:	e5832000 	str	r2, [r3]
8000daf8:	e3053048 	movw	r3, #20552	; 0x5048
8000dafc:	e3a020c7 	mov	r2, #199	; 0xc7
8000db00:	e34d3021 	movt	r3, #53281	; 0xd021
8000db04:	e5832000 	str	r2, [r3]
8000db08:	e3053068 	movw	r3, #20584	; 0x5068
8000db0c:	e300210e 	movw	r2, #270	; 0x10e
8000db10:	e34d3021 	movt	r3, #53281	; 0xd021
8000db14:	e5832000 	str	r2, [r3]
8000db18:	e3a01002 	mov	r1, #2
8000db1c:	e3a0000e 	mov	r0, #14
8000db20:	ebffff98 	bl	8000d988 <setgpiofunc.part.0>
8000db24:	e3a01002 	mov	r1, #2
8000db28:	e3a0000f 	mov	r0, #15
8000db2c:	ebffff95 	bl	8000d988 <setgpiofunc.part.0>
8000db30:	e3a03094 	mov	r3, #148	; 0x94
8000db34:	e34d3020 	movt	r3, #53280	; 0xd020
8000db38:	e5834000 	str	r4, [r3]
8000db3c:	e3a0000a 	mov	r0, #10
8000db40:	e3a06098 	mov	r6, #152	; 0x98
8000db44:	e34d6020 	movt	r6, #53280	; 0xd020
8000db48:	ebfffe69 	bl	8000d4f4 <delay>
8000db4c:	e3a03903 	mov	r3, #49152	; 0xc000
8000db50:	e5863000 	str	r3, [r6]
8000db54:	e3a0000a 	mov	r0, #10
8000db58:	ebfffe65 	bl	8000d4f4 <delay>
8000db5c:	e5864000 	str	r4, [r6]
8000db60:	e5857000 	str	r7, [r5]
8000db64:	e3a03cb2 	mov	r3, #45568	; 0xb200
8000db68:	e34d3000 	movt	r3, #53248	; 0xd000
8000db6c:	e5932010 	ldr	r2, [r3, #16]
8000db70:	e3822202 	orr	r2, r2, #536870912	; 0x20000000
8000db74:	e5832010 	str	r2, [r3, #16]
8000db78:	e8bd81f0 	pop	{r4, r5, r6, r7, r8, pc}

8000db7c <uartinit_fvp>:
8000db7c:	e3a02000 	mov	r2, #0
8000db80:	e3a03010 	mov	r3, #16
8000db84:	e34d2009 	movt	r2, #53257	; 0xd009
8000db88:	e3041d04 	movw	r1, #19716	; 0x4d04
8000db8c:	e3481009 	movt	r1, #32777	; 0x8009
8000db90:	e3a00000 	mov	r0, #0
8000db94:	e5823038 	str	r3, [r2, #56]	; 0x38
8000db98:	e5923030 	ldr	r3, [r2, #48]	; 0x30
8000db9c:	e3833c03 	orr	r3, r3, #768	; 0x300
8000dba0:	e3833001 	orr	r3, r3, #1
8000dba4:	e5823030 	str	r3, [r2, #48]	; 0x30
8000dba8:	e5810000 	str	r0, [r1]
8000dbac:	e12fff1e 	bx	lr

8000dbb0 <uartputc_fvp>:
8000dbb0:	e350000a 	cmp	r0, #10
8000dbb4:	0a000006 	beq	8000dbd4 <uartputc_fvp+0x24>
8000dbb8:	e3a02000 	mov	r2, #0
8000dbbc:	e34d2009 	movt	r2, #53257	; 0xd009
8000dbc0:	e5923018 	ldr	r3, [r2, #24]
8000dbc4:	e3130020 	tst	r3, #32
8000dbc8:	1afffffc 	bne	8000dbc0 <uartputc_fvp+0x10>
8000dbcc:	e5820000 	str	r0, [r2]
8000dbd0:	e12fff1e 	bx	lr
8000dbd4:	e3a02000 	mov	r2, #0
8000dbd8:	e34d2009 	movt	r2, #53257	; 0xd009
8000dbdc:	e5923018 	ldr	r3, [r2, #24]
8000dbe0:	e3130020 	tst	r3, #32
8000dbe4:	1afffffc 	bne	8000dbdc <uartputc_fvp+0x2c>
8000dbe8:	e3a0300d 	mov	r3, #13
8000dbec:	e5823000 	str	r3, [r2]
8000dbf0:	eafffff0 	b	8000dbb8 <uartputc_fvp+0x8>

8000dbf4 <uartgetc_fvp>:
8000dbf4:	e3a02000 	mov	r2, #0
8000dbf8:	e34d2009 	movt	r2, #53257	; 0xd009
8000dbfc:	e5923018 	ldr	r3, [r2, #24]
8000dc00:	e3130010 	tst	r3, #16
8000dc04:	1afffffc 	bne	8000dbfc <uartgetc_fvp+0x8>
8000dc08:	e5920000 	ldr	r0, [r2]
8000dc0c:	e12fff1e 	bx	lr

8000dc10 <walkpgdir>:
8000dc10:	e92d47f0 	push	{r4, r5, r6, r7, r8, r9, sl, lr}
8000dc14:	e1a05001 	mov	r5, r1
8000dc18:	e1a08a21 	lsr	r8, r1, #20
8000dc1c:	e7904108 	ldr	r4, [r0, r8, lsl #2]
8000dc20:	e3540000 	cmp	r4, #0
8000dc24:	0a000005 	beq	8000dc40 <walkpgdir+0x30>
8000dc28:	e3c44eff 	bic	r4, r4, #4080	; 0xff0
8000dc2c:	e3c4400f 	bic	r4, r4, #15
8000dc30:	e2846102 	add	r6, r4, #-2147483648	; 0x80000000
8000dc34:	e7e75655 	ubfx	r5, r5, #12, #8
8000dc38:	e0860105 	add	r0, r6, r5, lsl #2
8000dc3c:	e8bd87f0 	pop	{r4, r5, r6, r7, r8, r9, sl, pc}
8000dc40:	e3530000 	cmp	r3, #0
8000dc44:	0a00000b 	beq	8000dc78 <walkpgdir+0x68>
8000dc48:	e1a07000 	mov	r7, r0
8000dc4c:	e1a09002 	mov	r9, r2
8000dc50:	ebfff2bd 	bl	8000a74c <kalloc>
8000dc54:	e2506000 	subs	r6, r0, #0
8000dc58:	0a000006 	beq	8000dc78 <walkpgdir+0x68>
8000dc5c:	e3a02a01 	mov	r2, #4096	; 0x1000
8000dc60:	e1a01004 	mov	r1, r4
8000dc64:	ebfff865 	bl	8000be00 <memset>
8000dc68:	e2862102 	add	r2, r6, #-2147483648	; 0x80000000
8000dc6c:	e1822009 	orr	r2, r2, r9
8000dc70:	e7872108 	str	r2, [r7, r8, lsl #2]
8000dc74:	eaffffee 	b	8000dc34 <walkpgdir+0x24>
8000dc78:	e3a00000 	mov	r0, #0
8000dc7c:	e8bd87f0 	pop	{r4, r5, r6, r7, r8, r9, sl, pc}

8000dc80 <mappages>:
8000dc80:	e92d47f0 	push	{r4, r5, r6, r7, r8, r9, sl, lr}
8000dc84:	e3a0ca0f 	mov	ip, #61440	; 0xf000
8000dc88:	e59d7020 	ldr	r7, [sp, #32]
8000dc8c:	e2426001 	sub	r6, r2, #1
8000dc90:	e34fcfff 	movt	ip, #65535	; 0xffff
8000dc94:	e1a05000 	mov	r5, r0
8000dc98:	e0866001 	add	r6, r6, r1
8000dc9c:	e3170002 	tst	r7, #2
8000dca0:	e59da024 	ldr	sl, [sp, #36]	; 0x24
8000dca4:	e006600c 	and	r6, r6, ip
8000dca8:	e001400c 	and	r4, r1, ip
8000dcac:	0a000015 	beq	8000dd08 <mappages+0x88>
8000dcb0:	e1540006 	cmp	r4, r6
8000dcb4:	8a000011 	bhi	8000dd00 <mappages+0x80>
8000dcb8:	e1a02a24 	lsr	r2, r4, #20
8000dcbc:	e7901102 	ldr	r1, [r0, r2, lsl #2]
8000dcc0:	e0802102 	add	r2, r0, r2, lsl #2
8000dcc4:	e3510000 	cmp	r1, #0
8000dcc8:	1a000024 	bne	8000dd60 <mappages+0xe0>
8000dccc:	e0438004 	sub	r8, r3, r4
8000dcd0:	ea000004 	b	8000dce8 <mappages+0x68>
8000dcd4:	e1a02a24 	lsr	r2, r4, #20
8000dcd8:	e7953102 	ldr	r3, [r5, r2, lsl #2]
8000dcdc:	e0852102 	add	r2, r5, r2, lsl #2
8000dce0:	e3530000 	cmp	r3, #0
8000dce4:	1a00001d 	bne	8000dd60 <mappages+0xe0>
8000dce8:	e0841008 	add	r1, r4, r8
8000dcec:	e2844601 	add	r4, r4, #1048576	; 0x100000
8000dcf0:	e1560004 	cmp	r6, r4
8000dcf4:	e1811007 	orr	r1, r1, r7
8000dcf8:	e5821000 	str	r1, [r2]
8000dcfc:	2afffff4 	bcs	8000dcd4 <mappages+0x54>
8000dd00:	e3a00000 	mov	r0, #0
8000dd04:	e8bd87f0 	pop	{r4, r5, r6, r7, r8, r9, sl, pc}
8000dd08:	e3170001 	tst	r7, #1
8000dd0c:	0a000016 	beq	8000dd6c <mappages+0xec>
8000dd10:	e0438004 	sub	r8, r3, r4
8000dd14:	ea000007 	b	8000dd38 <mappages+0xb8>
8000dd18:	e5903000 	ldr	r3, [r0]
8000dd1c:	e3530000 	cmp	r3, #0
8000dd20:	1a00000e 	bne	8000dd60 <mappages+0xe0>
8000dd24:	e1540006 	cmp	r4, r6
8000dd28:	e189900a 	orr	r9, r9, sl
8000dd2c:	e5809000 	str	r9, [r0]
8000dd30:	0afffff2 	beq	8000dd00 <mappages+0x80>
8000dd34:	e2844a01 	add	r4, r4, #4096	; 0x1000
8000dd38:	e0849008 	add	r9, r4, r8
8000dd3c:	e3a03001 	mov	r3, #1
8000dd40:	e1a02007 	mov	r2, r7
8000dd44:	e1a01004 	mov	r1, r4
8000dd48:	e1a00005 	mov	r0, r5
8000dd4c:	ebffffaf 	bl	8000dc10 <walkpgdir>
8000dd50:	e3500000 	cmp	r0, #0
8000dd54:	1affffef 	bne	8000dd18 <mappages+0x98>
8000dd58:	e3e00000 	mvn	r0, #0
8000dd5c:	e8bd87f0 	pop	{r4, r5, r6, r7, r8, r9, sl, pc}
8000dd60:	e30e0cf0 	movw	r0, #60656	; 0xecf0
8000dd64:	e3480000 	movt	r0, #32768	; 0x8000
8000dd68:	ebffebec 	bl	80008d20 <panic>
8000dd6c:	e30e0cf8 	movw	r0, #60664	; 0xecf8
8000dd70:	e3480000 	movt	r0, #32768	; 0x8000
8000dd74:	ebffebe9 	bl	80008d20 <panic>

8000dd78 <deallocuvm.part.0>:
8000dd78:	e92d47f0 	push	{r4, r5, r6, r7, r8, r9, sl, lr}
8000dd7c:	e3a06a0f 	mov	r6, #61440	; 0xf000
8000dd80:	e34f6fff 	movt	r6, #65535	; 0xffff
8000dd84:	e2824eff 	add	r4, r2, #4080	; 0xff0
8000dd88:	e284400f 	add	r4, r4, #15
8000dd8c:	e1a09002 	mov	r9, r2
8000dd90:	e0044006 	and	r4, r4, r6
8000dd94:	e1540001 	cmp	r4, r1
8000dd98:	2a000016 	bcs	8000ddf8 <deallocuvm.part.0+0x80>
8000dd9c:	e1a05001 	mov	r5, r1
8000dda0:	e1a07000 	mov	r7, r0
8000dda4:	e3a08000 	mov	r8, #0
8000dda8:	e1a01004 	mov	r1, r4
8000ddac:	e3a03000 	mov	r3, #0
8000ddb0:	e3a02001 	mov	r2, #1
8000ddb4:	e1a00007 	mov	r0, r7
8000ddb8:	ebffff94 	bl	8000dc10 <walkpgdir>
8000ddbc:	e250a000 	subs	sl, r0, #0
8000ddc0:	028449ff 	addeq	r4, r4, #4177920	; 0x3fc000
8000ddc4:	02844a03 	addeq	r4, r4, #12288	; 0x3000
8000ddc8:	0a000007 	beq	8000ddec <deallocuvm.part.0+0x74>
8000ddcc:	e59a0000 	ldr	r0, [sl]
8000ddd0:	e3500000 	cmp	r0, #0
8000ddd4:	0a000004 	beq	8000ddec <deallocuvm.part.0+0x74>
8000ddd8:	e0100006 	ands	r0, r0, r6
8000dddc:	0a000007 	beq	8000de00 <deallocuvm.part.0+0x88>
8000dde0:	e2800102 	add	r0, r0, #-2147483648	; 0x80000000
8000dde4:	ebfff1f1 	bl	8000a5b0 <kfree>
8000dde8:	e58a8000 	str	r8, [sl]
8000ddec:	e2844a01 	add	r4, r4, #4096	; 0x1000
8000ddf0:	e1540005 	cmp	r4, r5
8000ddf4:	3affffeb 	bcc	8000dda8 <deallocuvm.part.0+0x30>
8000ddf8:	e1a00009 	mov	r0, r9
8000ddfc:	e8bd87f0 	pop	{r4, r5, r6, r7, r8, r9, sl, pc}
8000de00:	e30e05a0 	movw	r0, #58784	; 0xe5a0
8000de04:	e3480000 	movt	r0, #32768	; 0x8000
8000de08:	ebffebc4 	bl	80008d20 <panic>

8000de0c <setupkvm>:
8000de0c:	e92d4010 	push	{r4, lr}
8000de10:	ebfff24d 	bl	8000a74c <kalloc>
8000de14:	e2504000 	subs	r4, r0, #0
8000de18:	0a000002 	beq	8000de28 <setupkvm+0x1c>
8000de1c:	e3a02a01 	mov	r2, #4096	; 0x1000
8000de20:	e3a01000 	mov	r1, #0
8000de24:	ebfff7f5 	bl	8000be00 <memset>
8000de28:	e1a00004 	mov	r0, r4
8000de2c:	e8bd8010 	pop	{r4, pc}

8000de30 <setupkvm_new>:
8000de30:	e3043d08 	movw	r3, #19720	; 0x4d08
8000de34:	e3a02901 	mov	r2, #16384	; 0x4000
8000de38:	e3483009 	movt	r3, #32777	; 0x8009
8000de3c:	e3a01000 	mov	r1, #0
8000de40:	e92d4070 	push	{r4, r5, r6, lr}
8000de44:	e24dd008 	sub	sp, sp, #8
8000de48:	e5936000 	ldr	r6, [r3]
8000de4c:	e1a00006 	mov	r0, r6
8000de50:	ebfff7ea 	bl	8000be00 <memset>
8000de54:	e3023c94 	movw	r3, #11412	; 0x2c94
8000de58:	e3483009 	movt	r3, #32777	; 0x8009
8000de5c:	e5932000 	ldr	r2, [r3]
8000de60:	e2823102 	add	r3, r2, #-2147483648	; 0x80000000
8000de64:	e353020d 	cmp	r3, #-805306368	; 0xd0000000
8000de68:	8a000016 	bhi	8000dec8 <setupkvm_new+0x98>
8000de6c:	e30f3874 	movw	r3, #63604	; 0xf874
8000de70:	e3483008 	movt	r3, #32776	; 0x8008
8000de74:	e2834014 	add	r4, r3, #20
8000de78:	e2835050 	add	r5, r3, #80	; 0x50
8000de7c:	e5832008 	str	r2, [r3, #8]
8000de80:	e5143010 	ldr	r3, [r4, #-16]
8000de84:	e1a00006 	mov	r0, r6
8000de88:	e9145000 	ldmdb	r4, {ip, lr}
8000de8c:	e5141014 	ldr	r1, [r4, #-20]	; 0xffffffec
8000de90:	e0422003 	sub	r2, r2, r3
8000de94:	e88d5000 	stm	sp, {ip, lr}
8000de98:	ebffff78 	bl	8000dc80 <mappages>
8000de9c:	e3500000 	cmp	r0, #0
8000dea0:	ba000004 	blt	8000deb8 <setupkvm_new+0x88>
8000dea4:	e2844014 	add	r4, r4, #20
8000dea8:	e1540005 	cmp	r4, r5
8000deac:	0a000002 	beq	8000debc <setupkvm_new+0x8c>
8000deb0:	e514200c 	ldr	r2, [r4, #-12]
8000deb4:	eafffff1 	b	8000de80 <setupkvm_new+0x50>
8000deb8:	e3a06000 	mov	r6, #0
8000debc:	e1a00006 	mov	r0, r6
8000dec0:	e28dd008 	add	sp, sp, #8
8000dec4:	e8bd8070 	pop	{r4, r5, r6, pc}
8000dec8:	e30e0d10 	movw	r0, #60688	; 0xed10
8000decc:	e3480000 	movt	r0, #32768	; 0x8000
8000ded0:	ebffeb92 	bl	80008d20 <panic>

8000ded4 <kvmalloc>:
8000ded4:	e92d4010 	push	{r4, lr}
8000ded8:	ebffffd4 	bl	8000de30 <setupkvm_new>
8000dedc:	e3043d08 	movw	r3, #19720	; 0x4d08
8000dee0:	e3483009 	movt	r3, #32777	; 0x8009
8000dee4:	e5830000 	str	r0, [r3]
8000dee8:	e8bd8010 	pop	{r4, pc}

8000deec <switchkvm>:
8000deec:	e12fff1e 	bx	lr

8000def0 <switchkvm_new>:
8000def0:	e92d4010 	push	{r4, lr}
8000def4:	ebffe8cc 	bl	8000822c <dsb_barrier>
8000def8:	ebffe8d1 	bl	80008244 <flush_idcache>
8000defc:	e3043d08 	movw	r3, #19720	; 0x4d08
8000df00:	e3483009 	movt	r3, #32777	; 0x8009
8000df04:	e5930000 	ldr	r0, [r3]
8000df08:	e2800102 	add	r0, r0, #-2147483648	; 0x80000000
8000df0c:	ebffe8da 	bl	8000827c <set_pgtbase>
8000df10:	ebffe8c5 	bl	8000822c <dsb_barrier>
8000df14:	e8bd4010 	pop	{r4, lr}
8000df18:	eaffe8cc 	b	80008250 <flush_tlb>

8000df1c <switchuvm>:
8000df1c:	e92d4010 	push	{r4, lr}
8000df20:	e1a04000 	mov	r4, r0
8000df24:	ebfff74f 	bl	8000bc68 <pushcli>
8000df28:	e5941004 	ldr	r1, [r4, #4]
8000df2c:	e3510000 	cmp	r1, #0
8000df30:	0a000008 	beq	8000df58 <switchuvm+0x3c>
8000df34:	e3043d08 	movw	r3, #19720	; 0x4d08
8000df38:	e3a02a01 	mov	r2, #4096	; 0x1000
8000df3c:	e3483009 	movt	r3, #32777	; 0x8009
8000df40:	e5930000 	ldr	r0, [r3]
8000df44:	ebfff7db 	bl	8000beb8 <memmove>
8000df48:	ebffe8bd 	bl	80008244 <flush_idcache>
8000df4c:	ebffe8bf 	bl	80008250 <flush_tlb>
8000df50:	e8bd4010 	pop	{r4, lr}
8000df54:	eafff770 	b	8000bd1c <popcli>
8000df58:	e30e0d2c 	movw	r0, #60716	; 0xed2c
8000df5c:	e3480000 	movt	r0, #32768	; 0x8000
8000df60:	ebffeb6e 	bl	80008d20 <panic>

8000df64 <inituvm>:
8000df64:	e3520a01 	cmp	r2, #4096	; 0x1000
8000df68:	e92d40f0 	push	{r4, r5, r6, r7, lr}
8000df6c:	e24dd00c 	sub	sp, sp, #12
8000df70:	2a000016 	bcs	8000dfd0 <inituvm+0x6c>
8000df74:	e1a04002 	mov	r4, r2
8000df78:	e1a06001 	mov	r6, r1
8000df7c:	e1a07000 	mov	r7, r0
8000df80:	ebfff1f1 	bl	8000a74c <kalloc>
8000df84:	e3a02a01 	mov	r2, #4096	; 0x1000
8000df88:	e3a01000 	mov	r1, #0
8000df8c:	e1a05000 	mov	r5, r0
8000df90:	ebfff79a 	bl	8000be00 <memset>
8000df94:	e3002dfe 	movw	r2, #3582	; 0xdfe
8000df98:	e3a03001 	mov	r3, #1
8000df9c:	e58d2004 	str	r2, [sp, #4]
8000dfa0:	e1a00007 	mov	r0, r7
8000dfa4:	e58d3000 	str	r3, [sp]
8000dfa8:	e3a02a01 	mov	r2, #4096	; 0x1000
8000dfac:	e2853102 	add	r3, r5, #-2147483648	; 0x80000000
8000dfb0:	e3a01000 	mov	r1, #0
8000dfb4:	ebffff31 	bl	8000dc80 <mappages>
8000dfb8:	e1a02004 	mov	r2, r4
8000dfbc:	e1a01006 	mov	r1, r6
8000dfc0:	e1a00005 	mov	r0, r5
8000dfc4:	e28dd00c 	add	sp, sp, #12
8000dfc8:	e8bd40f0 	pop	{r4, r5, r6, r7, lr}
8000dfcc:	eafff7b9 	b	8000beb8 <memmove>
8000dfd0:	e30e0d40 	movw	r0, #60736	; 0xed40
8000dfd4:	e3480000 	movt	r0, #32768	; 0x8000
8000dfd8:	ebffeb50 	bl	80008d20 <panic>

8000dfdc <loaduvm>:
8000dfdc:	e92d4ff0 	push	{r4, r5, r6, r7, r8, r9, sl, fp, lr}
8000dfe0:	e24dd00c 	sub	sp, sp, #12
8000dfe4:	e7eb4051 	ubfx	r4, r1, #0, #12
8000dfe8:	e59d7030 	ldr	r7, [sp, #48]	; 0x30
8000dfec:	e3540000 	cmp	r4, #0
8000dff0:	e58d2004 	str	r2, [sp, #4]
8000dff4:	1a00002e 	bne	8000e0b4 <loaduvm+0xd8>
8000dff8:	e1a0b003 	mov	fp, r3
8000dffc:	e1a08001 	mov	r8, r1
8000e000:	e0813007 	add	r3, r1, r7
8000e004:	e3530101 	cmp	r3, #1073741824	; 0x40000000
8000e008:	8a000026 	bhi	8000e0a8 <loaduvm+0xcc>
8000e00c:	e3570000 	cmp	r7, #0
8000e010:	13a09a0f 	movne	r9, #61440	; 0xf000
8000e014:	11a0a000 	movne	sl, r0
8000e018:	134f9fff 	movtne	r9, #65535	; 0xffff
8000e01c:	11a05007 	movne	r5, r7
8000e020:	1a000004 	bne	8000e038 <loaduvm+0x5c>
8000e024:	ea000019 	b	8000e090 <loaduvm+0xb4>
8000e028:	e2844a01 	add	r4, r4, #4096	; 0x1000
8000e02c:	e2455a01 	sub	r5, r5, #4096	; 0x1000
8000e030:	e1570004 	cmp	r7, r4
8000e034:	9a000015 	bls	8000e090 <loaduvm+0xb4>
8000e038:	e0881004 	add	r1, r8, r4
8000e03c:	e3a03000 	mov	r3, #0
8000e040:	e3a02001 	mov	r2, #1
8000e044:	e1a0000a 	mov	r0, sl
8000e048:	ebfffef0 	bl	8000dc10 <walkpgdir>
8000e04c:	e3500000 	cmp	r0, #0
8000e050:	0a000011 	beq	8000e09c <loaduvm+0xc0>
8000e054:	e5901000 	ldr	r1, [r0]
8000e058:	e3550a01 	cmp	r5, #4096	; 0x1000
8000e05c:	e08b2004 	add	r2, fp, r4
8000e060:	31a06005 	movcc	r6, r5
8000e064:	e59d0004 	ldr	r0, [sp, #4]
8000e068:	23a06a01 	movcs	r6, #4096	; 0x1000
8000e06c:	e0011009 	and	r1, r1, r9
8000e070:	e1a03006 	mov	r3, r6
8000e074:	e2811102 	add	r1, r1, #-2147483648	; 0x80000000
8000e078:	ebffefe4 	bl	8000a010 <readi>
8000e07c:	e1500006 	cmp	r0, r6
8000e080:	0affffe8 	beq	8000e028 <loaduvm+0x4c>
8000e084:	e3e00000 	mvn	r0, #0
8000e088:	e28dd00c 	add	sp, sp, #12
8000e08c:	e8bd8ff0 	pop	{r4, r5, r6, r7, r8, r9, sl, fp, pc}
8000e090:	e3a00000 	mov	r0, #0
8000e094:	e28dd00c 	add	sp, sp, #12
8000e098:	e8bd8ff0 	pop	{r4, r5, r6, r7, r8, r9, sl, fp, pc}
8000e09c:	e30e0dc8 	movw	r0, #60872	; 0xedc8
8000e0a0:	e3480000 	movt	r0, #32768	; 0x8000
8000e0a4:	ebffeb1d 	bl	80008d20 <panic>
8000e0a8:	e30e0d80 	movw	r0, #60800	; 0xed80
8000e0ac:	e3480000 	movt	r0, #32768	; 0x8000
8000e0b0:	ebffeb1a 	bl	80008d20 <panic>
8000e0b4:	e30e0d5c 	movw	r0, #60764	; 0xed5c
8000e0b8:	e3480000 	movt	r0, #32768	; 0x8000
8000e0bc:	ebffeb17 	bl	80008d20 <panic>

8000e0c0 <allocuvm>:
8000e0c0:	e3720107 	cmn	r2, #-1073741823	; 0xc0000001
8000e0c4:	8a00002f 	bhi	8000e188 <allocuvm+0xc8>
8000e0c8:	e1520001 	cmp	r2, r1
8000e0cc:	3a00002b 	bcc	8000e180 <allocuvm+0xc0>
8000e0d0:	e92d47f0 	push	{r4, r5, r6, r7, r8, r9, sl, lr}
8000e0d4:	e1a05002 	mov	r5, r2
8000e0d8:	e2814eff 	add	r4, r1, #4080	; 0xff0
8000e0dc:	e3a02a0f 	mov	r2, #61440	; 0xf000
8000e0e0:	e34f2fff 	movt	r2, #65535	; 0xffff
8000e0e4:	e284400f 	add	r4, r4, #15
8000e0e8:	e0044002 	and	r4, r4, r2
8000e0ec:	e24dd008 	sub	sp, sp, #8
8000e0f0:	e1550004 	cmp	r5, r4
8000e0f4:	e1a08001 	mov	r8, r1
8000e0f8:	e1a07000 	mov	r7, r0
8000e0fc:	9a000023 	bls	8000e190 <allocuvm+0xd0>
8000e100:	e2453001 	sub	r3, r5, #1
8000e104:	e2846a01 	add	r6, r4, #4096	; 0x1000
8000e108:	e0433004 	sub	r3, r3, r4
8000e10c:	e300adfe 	movw	sl, #3582	; 0xdfe
8000e110:	e0033002 	and	r3, r3, r2
8000e114:	e0836006 	add	r6, r3, r6
8000e118:	ea00000b 	b	8000e14c <allocuvm+0x8c>
8000e11c:	ebfff737 	bl	8000be00 <memset>
8000e120:	e58da004 	str	sl, [sp, #4]
8000e124:	e3a03001 	mov	r3, #1
8000e128:	e58d3000 	str	r3, [sp]
8000e12c:	e3a02a01 	mov	r2, #4096	; 0x1000
8000e130:	e1a01004 	mov	r1, r4
8000e134:	e2893102 	add	r3, r9, #-2147483648	; 0x80000000
8000e138:	e0844002 	add	r4, r4, r2
8000e13c:	e1a00007 	mov	r0, r7
8000e140:	ebfffece 	bl	8000dc80 <mappages>
8000e144:	e1540006 	cmp	r4, r6
8000e148:	0a000010 	beq	8000e190 <allocuvm+0xd0>
8000e14c:	ebfff17e 	bl	8000a74c <kalloc>
8000e150:	e2509000 	subs	r9, r0, #0
8000e154:	e3a02a01 	mov	r2, #4096	; 0x1000
8000e158:	e3a01000 	mov	r1, #0
8000e15c:	1affffee 	bne	8000e11c <allocuvm+0x5c>
8000e160:	e30e0de8 	movw	r0, #60904	; 0xede8
8000e164:	e3480000 	movt	r0, #32768	; 0x8000
8000e168:	ebffeb09 	bl	80008d94 <cprintf>
8000e16c:	e1550008 	cmp	r5, r8
8000e170:	93a00000 	movls	r0, #0
8000e174:	8a000008 	bhi	8000e19c <allocuvm+0xdc>
8000e178:	e28dd008 	add	sp, sp, #8
8000e17c:	e8bd87f0 	pop	{r4, r5, r6, r7, r8, r9, sl, pc}
8000e180:	e1a00001 	mov	r0, r1
8000e184:	e12fff1e 	bx	lr
8000e188:	e3a00000 	mov	r0, #0
8000e18c:	e12fff1e 	bx	lr
8000e190:	e1a00005 	mov	r0, r5
8000e194:	e28dd008 	add	sp, sp, #8
8000e198:	e8bd87f0 	pop	{r4, r5, r6, r7, r8, r9, sl, pc}
8000e19c:	e1a02008 	mov	r2, r8
8000e1a0:	e1a01005 	mov	r1, r5
8000e1a4:	e1a00007 	mov	r0, r7
8000e1a8:	ebfffef2 	bl	8000dd78 <deallocuvm.part.0>
8000e1ac:	e1a00009 	mov	r0, r9
8000e1b0:	eafffff0 	b	8000e178 <allocuvm+0xb8>

8000e1b4 <deallocuvm>:
8000e1b4:	e1520001 	cmp	r2, r1
8000e1b8:	2a000000 	bcs	8000e1c0 <deallocuvm+0xc>
8000e1bc:	eafffeed 	b	8000dd78 <deallocuvm.part.0>
8000e1c0:	e1a00001 	mov	r0, r1
8000e1c4:	e12fff1e 	bx	lr

8000e1c8 <freevm>:
8000e1c8:	e92d41f0 	push	{r4, r5, r6, r7, r8, lr}
8000e1cc:	e2507000 	subs	r7, r0, #0
8000e1d0:	0a000015 	beq	8000e22c <freevm+0x64>
8000e1d4:	e2875eff 	add	r5, r7, #4080	; 0xff0
8000e1d8:	e3a06a0f 	mov	r6, #61440	; 0xf000
8000e1dc:	e34f6fff 	movt	r6, #65535	; 0xffff
8000e1e0:	e3a02000 	mov	r2, #0
8000e1e4:	e3a01101 	mov	r1, #1073741824	; 0x40000000
8000e1e8:	e285500c 	add	r5, r5, #12
8000e1ec:	e2474004 	sub	r4, r7, #4
8000e1f0:	ebfffee0 	bl	8000dd78 <deallocuvm.part.0>
8000e1f4:	ea000001 	b	8000e200 <freevm+0x38>
8000e1f8:	e1540005 	cmp	r4, r5
8000e1fc:	0a000007 	beq	8000e220 <freevm+0x58>
8000e200:	e5b40004 	ldr	r0, [r4, #4]!
8000e204:	e3500000 	cmp	r0, #0
8000e208:	0afffffa 	beq	8000e1f8 <freevm+0x30>
8000e20c:	e0000006 	and	r0, r0, r6
8000e210:	e2800102 	add	r0, r0, #-2147483648	; 0x80000000
8000e214:	ebfff0e5 	bl	8000a5b0 <kfree>
8000e218:	e1540005 	cmp	r4, r5
8000e21c:	1afffff7 	bne	8000e200 <freevm+0x38>
8000e220:	e1a00007 	mov	r0, r7
8000e224:	e8bd41f0 	pop	{r4, r5, r6, r7, r8, lr}
8000e228:	eafff0e0 	b	8000a5b0 <kfree>
8000e22c:	e30e0e00 	movw	r0, #60928	; 0xee00
8000e230:	e3480000 	movt	r0, #32768	; 0x8000
8000e234:	ebffeab9 	bl	80008d20 <panic>

8000e238 <clearpteu>:
8000e238:	e92d4010 	push	{r4, lr}
8000e23c:	e3a03000 	mov	r3, #0
8000e240:	e3a02001 	mov	r2, #1
8000e244:	ebfffe71 	bl	8000dc10 <walkpgdir>
8000e248:	e3500000 	cmp	r0, #0
8000e24c:	0a000003 	beq	8000e260 <clearpteu+0x28>
8000e250:	e5903000 	ldr	r3, [r0]
8000e254:	e3c33eaa 	bic	r3, r3, #2720	; 0xaa0
8000e258:	e5803000 	str	r3, [r0]
8000e25c:	e8bd8010 	pop	{r4, pc}
8000e260:	e30e0e14 	movw	r0, #60948	; 0xee14
8000e264:	e3480000 	movt	r0, #32768	; 0x8000
8000e268:	ebffeaac 	bl	80008d20 <panic>

8000e26c <copyuvm>:
8000e26c:	e92d4ff0 	push	{r4, r5, r6, r7, r8, r9, sl, fp, lr}
8000e270:	e24dd00c 	sub	sp, sp, #12
8000e274:	e1a09000 	mov	r9, r0
8000e278:	e1a08001 	mov	r8, r1
8000e27c:	ebfffee2 	bl	8000de0c <setupkvm>
8000e280:	e2506000 	subs	r6, r0, #0
8000e284:	0a000027 	beq	8000e328 <copyuvm+0xbc>
8000e288:	e3580000 	cmp	r8, #0
8000e28c:	0a000025 	beq	8000e328 <copyuvm+0xbc>
8000e290:	e3a07a0f 	mov	r7, #61440	; 0xf000
8000e294:	e3a04000 	mov	r4, #0
8000e298:	e34f7fff 	movt	r7, #65535	; 0xffff
8000e29c:	ea00000f 	b	8000e2e0 <copyuvm+0x74>
8000e2a0:	e2851102 	add	r1, r5, #-2147483648	; 0x80000000
8000e2a4:	e3a02a01 	mov	r2, #4096	; 0x1000
8000e2a8:	ebfff702 	bl	8000beb8 <memmove>
8000e2ac:	e58db004 	str	fp, [sp, #4]
8000e2b0:	e3a02001 	mov	r2, #1
8000e2b4:	e58d2000 	str	r2, [sp]
8000e2b8:	e28a3102 	add	r3, sl, #-2147483648	; 0x80000000
8000e2bc:	e3a02a01 	mov	r2, #4096	; 0x1000
8000e2c0:	e1a01004 	mov	r1, r4
8000e2c4:	e1a00006 	mov	r0, r6
8000e2c8:	ebfffe6c 	bl	8000dc80 <mappages>
8000e2cc:	e3500000 	cmp	r0, #0
8000e2d0:	ba000011 	blt	8000e31c <copyuvm+0xb0>
8000e2d4:	e2844a01 	add	r4, r4, #4096	; 0x1000
8000e2d8:	e1580004 	cmp	r8, r4
8000e2dc:	9a000011 	bls	8000e328 <copyuvm+0xbc>
8000e2e0:	e3a03000 	mov	r3, #0
8000e2e4:	e3a02001 	mov	r2, #1
8000e2e8:	e1a01004 	mov	r1, r4
8000e2ec:	e1a00009 	mov	r0, r9
8000e2f0:	ebfffe46 	bl	8000dc10 <walkpgdir>
8000e2f4:	e3500000 	cmp	r0, #0
8000e2f8:	0a00000d 	beq	8000e334 <copyuvm+0xc8>
8000e2fc:	e5903000 	ldr	r3, [r0]
8000e300:	e3530000 	cmp	r3, #0
8000e304:	0a00000d 	beq	8000e340 <copyuvm+0xd4>
8000e308:	e0035007 	and	r5, r3, r7
8000e30c:	e7ebb053 	ubfx	fp, r3, #0, #12
8000e310:	ebfff10d 	bl	8000a74c <kalloc>
8000e314:	e250a000 	subs	sl, r0, #0
8000e318:	1affffe0 	bne	8000e2a0 <copyuvm+0x34>
8000e31c:	e1a00006 	mov	r0, r6
8000e320:	e3a06000 	mov	r6, #0
8000e324:	ebffffa7 	bl	8000e1c8 <freevm>
8000e328:	e1a00006 	mov	r0, r6
8000e32c:	e28dd00c 	add	sp, sp, #12
8000e330:	e8bd8ff0 	pop	{r4, r5, r6, r7, r8, r9, sl, fp, pc}
8000e334:	e30e0e20 	movw	r0, #60960	; 0xee20
8000e338:	e3480000 	movt	r0, #32768	; 0x8000
8000e33c:	ebffea77 	bl	80008d20 <panic>
8000e340:	e30e0e3c 	movw	r0, #60988	; 0xee3c
8000e344:	e3480000 	movt	r0, #32768	; 0x8000
8000e348:	ebffea74 	bl	80008d20 <panic>

8000e34c <uva2ka>:
8000e34c:	e92d4010 	push	{r4, lr}
8000e350:	e3a03000 	mov	r3, #0
8000e354:	e3a02001 	mov	r2, #1
8000e358:	ebfffe2c 	bl	8000dc10 <walkpgdir>
8000e35c:	e5900000 	ldr	r0, [r0]
8000e360:	e3500000 	cmp	r0, #0
8000e364:	08bd8010 	popeq	{r4, pc}
8000e368:	e2103eaa 	ands	r3, r0, #2720	; 0xaa0
8000e36c:	13c00eff 	bicne	r0, r0, #4080	; 0xff0
8000e370:	13c0000f 	bicne	r0, r0, #15
8000e374:	12800102 	addne	r0, r0, #-2147483648	; 0x80000000
8000e378:	01a00003 	moveq	r0, r3
8000e37c:	e8bd8010 	pop	{r4, pc}

8000e380 <copyout>:
8000e380:	e92d47f0 	push	{r4, r5, r6, r7, r8, r9, sl, lr}
8000e384:	e2536000 	subs	r6, r3, #0
8000e388:	0a00001a 	beq	8000e3f8 <copyout+0x78>
8000e38c:	e3a08a0f 	mov	r8, #61440	; 0xf000
8000e390:	e1a09000 	mov	r9, r0
8000e394:	e34f8fff 	movt	r8, #65535	; 0xffff
8000e398:	e1a0a001 	mov	sl, r1
8000e39c:	e1a07002 	mov	r7, r2
8000e3a0:	ea000006 	b	8000e3c0 <copyout+0x40>
8000e3a4:	e1540006 	cmp	r4, r6
8000e3a8:	21a04006 	movcs	r4, r6
8000e3ac:	e0877004 	add	r7, r7, r4
8000e3b0:	e1a02004 	mov	r2, r4
8000e3b4:	ebfff6bf 	bl	8000beb8 <memmove>
8000e3b8:	e0566004 	subs	r6, r6, r4
8000e3bc:	0a00000d 	beq	8000e3f8 <copyout+0x78>
8000e3c0:	e00a5008 	and	r5, sl, r8
8000e3c4:	e1a00009 	mov	r0, r9
8000e3c8:	e045400a 	sub	r4, r5, sl
8000e3cc:	e1a01005 	mov	r1, r5
8000e3d0:	e2844a01 	add	r4, r4, #4096	; 0x1000
8000e3d4:	ebffffdc 	bl	8000e34c <uva2ka>
8000e3d8:	e04a3005 	sub	r3, sl, r5
8000e3dc:	e3500000 	cmp	r0, #0
8000e3e0:	e0800003 	add	r0, r0, r3
8000e3e4:	e1a01007 	mov	r1, r7
8000e3e8:	e285aa01 	add	sl, r5, #4096	; 0x1000
8000e3ec:	1affffec 	bne	8000e3a4 <copyout+0x24>
8000e3f0:	e3e00000 	mvn	r0, #0
8000e3f4:	e8bd87f0 	pop	{r4, r5, r6, r7, r8, r9, sl, pc}
8000e3f8:	e3a00000 	mov	r0, #0
8000e3fc:	e8bd87f0 	pop	{r4, r5, r6, r7, r8, r9, sl, pc}
